Archive member included to satisfy reference by file (symbol)

D:/ITI/lectures/5-Intro to ES- Assaf/Tools/General Tools/mingw64/bin/../lib/gcc/x86_64-w64-mingw32/6.2.0/../../../../x86_64-w64-mingw32/lib/../lib/libwinmm.a(dmces00151.o)
                              FreeRTOS_Source\portable\MSVC-MingW\port.o (__imp_timeGetDevCaps)
D:/ITI/lectures/5-Intro to ES- Assaf/Tools/General Tools/mingw64/bin/../lib/gcc/x86_64-w64-mingw32/6.2.0/../../../../x86_64-w64-mingw32/lib/../lib/libwinmm.a(dmces00150.o)
                              FreeRTOS_Source\portable\MSVC-MingW\port.o (__imp_timeEndPeriod)
D:/ITI/lectures/5-Intro to ES- Assaf/Tools/General Tools/mingw64/bin/../lib/gcc/x86_64-w64-mingw32/6.2.0/../../../../x86_64-w64-mingw32/lib/../lib/libwinmm.a(dmces00149.o)
                              FreeRTOS_Source\portable\MSVC-MingW\port.o (__imp_timeBeginPeriod)
D:/ITI/lectures/5-Intro to ES- Assaf/Tools/General Tools/mingw64/bin/../lib/gcc/x86_64-w64-mingw32/6.2.0/../../../../x86_64-w64-mingw32/lib/../lib/libwinmm.a(dmceh.o)
                              D:/ITI/lectures/5-Intro to ES- Assaf/Tools/General Tools/mingw64/bin/../lib/gcc/x86_64-w64-mingw32/6.2.0/../../../../x86_64-w64-mingw32/lib/../lib/libwinmm.a(dmces00151.o) (_head_lib64_libwinmm_a)
D:/ITI/lectures/5-Intro to ES- Assaf/Tools/General Tools/mingw64/bin/../lib/gcc/x86_64-w64-mingw32/6.2.0/../../../../x86_64-w64-mingw32/lib/../lib/libwinmm.a(dmcet.o)
                              D:/ITI/lectures/5-Intro to ES- Assaf/Tools/General Tools/mingw64/bin/../lib/gcc/x86_64-w64-mingw32/6.2.0/../../../../x86_64-w64-mingw32/lib/../lib/libwinmm.a(dmceh.o) (__lib64_libwinmm_a_iname)
D:/ITI/lectures/5-Intro to ES- Assaf/Tools/General Tools/mingw64/bin/../lib/gcc/x86_64-w64-mingw32/6.2.0/../../../../x86_64-w64-mingw32/lib/../lib/libmingw32.a(lib64_libmingw32_a-atonexit.o)
                              D:/ITI/lectures/5-Intro to ES- Assaf/Tools/General Tools/mingw64/bin/../lib/gcc/x86_64-w64-mingw32/6.2.0/crtbegin.o (atexit)
D:/ITI/lectures/5-Intro to ES- Assaf/Tools/General Tools/mingw64/bin/../lib/gcc/x86_64-w64-mingw32/6.2.0/../../../../x86_64-w64-mingw32/lib/../lib/libmingw32.a(lib64_libmingw32_a-gccmain.o)
                              D:/ITI/lectures/5-Intro to ES- Assaf/Tools/General Tools/mingw64/bin/../lib/gcc/x86_64-w64-mingw32/6.2.0/../../../../x86_64-w64-mingw32/lib/../lib/crt2.o (__main)
D:/ITI/lectures/5-Intro to ES- Assaf/Tools/General Tools/mingw64/bin/../lib/gcc/x86_64-w64-mingw32/6.2.0/../../../../x86_64-w64-mingw32/lib/../lib/libmingw32.a(lib64_libmingw32_a-natstart.o)
                              D:/ITI/lectures/5-Intro to ES- Assaf/Tools/General Tools/mingw64/bin/../lib/gcc/x86_64-w64-mingw32/6.2.0/../../../../x86_64-w64-mingw32/lib/../lib/crt2.o (__native_startup_lock)
D:/ITI/lectures/5-Intro to ES- Assaf/Tools/General Tools/mingw64/bin/../lib/gcc/x86_64-w64-mingw32/6.2.0/../../../../x86_64-w64-mingw32/lib/../lib/libmingw32.a(lib64_libmingw32_a-wildcard.o)
                              D:/ITI/lectures/5-Intro to ES- Assaf/Tools/General Tools/mingw64/bin/../lib/gcc/x86_64-w64-mingw32/6.2.0/../../../../x86_64-w64-mingw32/lib/../lib/crt2.o (_dowildcard)
D:/ITI/lectures/5-Intro to ES- Assaf/Tools/General Tools/mingw64/bin/../lib/gcc/x86_64-w64-mingw32/6.2.0/../../../../x86_64-w64-mingw32/lib/../lib/libmingw32.a(lib64_libmingw32_a-charmax.o)
                              D:/ITI/lectures/5-Intro to ES- Assaf/Tools/General Tools/mingw64/bin/../lib/gcc/x86_64-w64-mingw32/6.2.0/../../../../x86_64-w64-mingw32/lib/../lib/crt2.o (mingw_initcharmax)
D:/ITI/lectures/5-Intro to ES- Assaf/Tools/General Tools/mingw64/bin/../lib/gcc/x86_64-w64-mingw32/6.2.0/../../../../x86_64-w64-mingw32/lib/../lib/libmingw32.a(lib64_libmingw32_a-dllargv.o)
                              D:/ITI/lectures/5-Intro to ES- Assaf/Tools/General Tools/mingw64/bin/../lib/gcc/x86_64-w64-mingw32/6.2.0/../../../../x86_64-w64-mingw32/lib/../lib/crt2.o (_setargv)
D:/ITI/lectures/5-Intro to ES- Assaf/Tools/General Tools/mingw64/bin/../lib/gcc/x86_64-w64-mingw32/6.2.0/../../../../x86_64-w64-mingw32/lib/../lib/libmingw32.a(lib64_libmingw32_a-gs_support.o)
                              D:/ITI/lectures/5-Intro to ES- Assaf/Tools/General Tools/mingw64/bin/../lib/gcc/x86_64-w64-mingw32/6.2.0/../../../../x86_64-w64-mingw32/lib/../lib/crt2.o (__security_init_cookie)
D:/ITI/lectures/5-Intro to ES- Assaf/Tools/General Tools/mingw64/bin/../lib/gcc/x86_64-w64-mingw32/6.2.0/../../../../x86_64-w64-mingw32/lib/../lib/libmingw32.a(lib64_libmingw32_a-_newmode.o)
                              D:/ITI/lectures/5-Intro to ES- Assaf/Tools/General Tools/mingw64/bin/../lib/gcc/x86_64-w64-mingw32/6.2.0/../../../../x86_64-w64-mingw32/lib/../lib/crt2.o (_newmode)
D:/ITI/lectures/5-Intro to ES- Assaf/Tools/General Tools/mingw64/bin/../lib/gcc/x86_64-w64-mingw32/6.2.0/../../../../x86_64-w64-mingw32/lib/../lib/libmingw32.a(lib64_libmingw32_a-tlssup.o)
                              D:/ITI/lectures/5-Intro to ES- Assaf/Tools/General Tools/mingw64/bin/../lib/gcc/x86_64-w64-mingw32/6.2.0/../../../../x86_64-w64-mingw32/lib/../lib/crt2.o (mingw_initltssuo_force)
D:/ITI/lectures/5-Intro to ES- Assaf/Tools/General Tools/mingw64/bin/../lib/gcc/x86_64-w64-mingw32/6.2.0/../../../../x86_64-w64-mingw32/lib/../lib/libmingw32.a(lib64_libmingw32_a-cinitexe.o)
                              D:/ITI/lectures/5-Intro to ES- Assaf/Tools/General Tools/mingw64/bin/../lib/gcc/x86_64-w64-mingw32/6.2.0/../../../../x86_64-w64-mingw32/lib/../lib/crt2.o (__xc_z)
D:/ITI/lectures/5-Intro to ES- Assaf/Tools/General Tools/mingw64/bin/../lib/gcc/x86_64-w64-mingw32/6.2.0/../../../../x86_64-w64-mingw32/lib/../lib/libmingw32.a(lib64_libmingw32_a-merr.o)
                              D:/ITI/lectures/5-Intro to ES- Assaf/Tools/General Tools/mingw64/bin/../lib/gcc/x86_64-w64-mingw32/6.2.0/../../../../x86_64-w64-mingw32/lib/../lib/crt2.o (__mingw_setusermatherr)
D:/ITI/lectures/5-Intro to ES- Assaf/Tools/General Tools/mingw64/bin/../lib/gcc/x86_64-w64-mingw32/6.2.0/../../../../x86_64-w64-mingw32/lib/../lib/libmingw32.a(lib64_libmingw32_a-CRT_fp10.o)
                              D:/ITI/lectures/5-Intro to ES- Assaf/Tools/General Tools/mingw64/bin/../lib/gcc/x86_64-w64-mingw32/6.2.0/../../../../x86_64-w64-mingw32/lib/../lib/crt2.o (_fpreset)
D:/ITI/lectures/5-Intro to ES- Assaf/Tools/General Tools/mingw64/bin/../lib/gcc/x86_64-w64-mingw32/6.2.0/../../../../x86_64-w64-mingw32/lib/../lib/libmingw32.a(lib64_libmingw32_a-mingw_helpers.o)
                              D:/ITI/lectures/5-Intro to ES- Assaf/Tools/General Tools/mingw64/bin/../lib/gcc/x86_64-w64-mingw32/6.2.0/../../../../x86_64-w64-mingw32/lib/../lib/libmingw32.a(lib64_libmingw32_a-atonexit.o) (_decode_pointer)
D:/ITI/lectures/5-Intro to ES- Assaf/Tools/General Tools/mingw64/bin/../lib/gcc/x86_64-w64-mingw32/6.2.0/../../../../x86_64-w64-mingw32/lib/../lib/libmingw32.a(lib64_libmingw32_a-pseudo-reloc.o)
                              D:/ITI/lectures/5-Intro to ES- Assaf/Tools/General Tools/mingw64/bin/../lib/gcc/x86_64-w64-mingw32/6.2.0/../../../../x86_64-w64-mingw32/lib/../lib/crt2.o (_pei386_runtime_relocator)
D:/ITI/lectures/5-Intro to ES- Assaf/Tools/General Tools/mingw64/bin/../lib/gcc/x86_64-w64-mingw32/6.2.0/../../../../x86_64-w64-mingw32/lib/../lib/libmingw32.a(lib64_libmingw32_a-xtxtmode.o)
                              D:/ITI/lectures/5-Intro to ES- Assaf/Tools/General Tools/mingw64/bin/../lib/gcc/x86_64-w64-mingw32/6.2.0/../../../../x86_64-w64-mingw32/lib/../lib/crt2.o (_fmode)
D:/ITI/lectures/5-Intro to ES- Assaf/Tools/General Tools/mingw64/bin/../lib/gcc/x86_64-w64-mingw32/6.2.0/../../../../x86_64-w64-mingw32/lib/../lib/libmingw32.a(lib64_libmingw32_a-crt_handler.o)
                              D:/ITI/lectures/5-Intro to ES- Assaf/Tools/General Tools/mingw64/bin/../lib/gcc/x86_64-w64-mingw32/6.2.0/../../../../x86_64-w64-mingw32/lib/../lib/crt2.o (__mingw_init_ehandler)
D:/ITI/lectures/5-Intro to ES- Assaf/Tools/General Tools/mingw64/bin/../lib/gcc/x86_64-w64-mingw32/6.2.0/../../../../x86_64-w64-mingw32/lib/../lib/libmingw32.a(lib64_libmingw32_a-tlsthrd.o)
                              D:/ITI/lectures/5-Intro to ES- Assaf/Tools/General Tools/mingw64/bin/../lib/gcc/x86_64-w64-mingw32/6.2.0/../../../../x86_64-w64-mingw32/lib/../lib/libmingw32.a(lib64_libmingw32_a-tlssup.o) (__mingw_TLScallback)
D:/ITI/lectures/5-Intro to ES- Assaf/Tools/General Tools/mingw64/bin/../lib/gcc/x86_64-w64-mingw32/6.2.0/../../../../x86_64-w64-mingw32/lib/../lib/libmingw32.a(lib64_libmingw32_a-tlsmcrt.o)
                              D:/ITI/lectures/5-Intro to ES- Assaf/Tools/General Tools/mingw64/bin/../lib/gcc/x86_64-w64-mingw32/6.2.0/../../../../x86_64-w64-mingw32/lib/../lib/libmingw32.a(lib64_libmingw32_a-tlssup.o) (_CRT_MT)
D:/ITI/lectures/5-Intro to ES- Assaf/Tools/General Tools/mingw64/bin/../lib/gcc/x86_64-w64-mingw32/6.2.0/../../../../x86_64-w64-mingw32/lib/../lib/libmingw32.a(lib64_libmingw32_a-pseudo-reloc-list.o)
                              D:/ITI/lectures/5-Intro to ES- Assaf/Tools/General Tools/mingw64/bin/../lib/gcc/x86_64-w64-mingw32/6.2.0/../../../../x86_64-w64-mingw32/lib/../lib/libmingw32.a(lib64_libmingw32_a-pseudo-reloc.o) (__RUNTIME_PSEUDO_RELOC_LIST__)
D:/ITI/lectures/5-Intro to ES- Assaf/Tools/General Tools/mingw64/bin/../lib/gcc/x86_64-w64-mingw32/6.2.0/../../../../x86_64-w64-mingw32/lib/../lib/libmingw32.a(lib64_libmingw32_a-pesect.o)
                              D:/ITI/lectures/5-Intro to ES- Assaf/Tools/General Tools/mingw64/bin/../lib/gcc/x86_64-w64-mingw32/6.2.0/../../../../x86_64-w64-mingw32/lib/../lib/libmingw32.a(lib64_libmingw32_a-crt_handler.o) (_FindPESectionByName)
D:/ITI/lectures/5-Intro to ES- Assaf/Tools/General Tools/mingw64/bin/../lib/gcc/x86_64-w64-mingw32/6.2.0/libgcc.a(_chkstk_ms.o)
                              main.o (___chkstk_ms)
D:/ITI/lectures/5-Intro to ES- Assaf/Tools/General Tools/mingw64/bin/../lib/gcc/x86_64-w64-mingw32/6.2.0/libgcc.a(_ctors.o)
                              D:/ITI/lectures/5-Intro to ES- Assaf/Tools/General Tools/mingw64/bin/../lib/gcc/x86_64-w64-mingw32/6.2.0/../../../../x86_64-w64-mingw32/lib/../lib/libmingw32.a(lib64_libmingw32_a-gccmain.o) (__DTOR_LIST__)
D:/ITI/lectures/5-Intro to ES- Assaf/Tools/General Tools/mingw64/bin/../lib/gcc/x86_64-w64-mingw32/6.2.0/../../../../x86_64-w64-mingw32/lib/../lib/libmingwex.a(lib64_libmingwex_a-mingw_matherr.o)
                              D:/ITI/lectures/5-Intro to ES- Assaf/Tools/General Tools/mingw64/bin/../lib/gcc/x86_64-w64-mingw32/6.2.0/../../../../x86_64-w64-mingw32/lib/../lib/crt2.o (_MINGW_INSTALL_DEBUG_MATHERR)
D:/ITI/lectures/5-Intro to ES- Assaf/Tools/General Tools/mingw64/bin/../lib/gcc/x86_64-w64-mingw32/6.2.0/../../../../x86_64-w64-mingw32/lib/../lib/libmsvcrt.a(dekes01240.o)
                              D:/ITI/lectures/5-Intro to ES- Assaf/Tools/General Tools/mingw64/bin/../lib/gcc/x86_64-w64-mingw32/6.2.0/../../../../x86_64-w64-mingw32/lib/../lib/libmingw32.a(lib64_libmingw32_a-pseudo-reloc.o) (vfprintf)
D:/ITI/lectures/5-Intro to ES- Assaf/Tools/General Tools/mingw64/bin/../lib/gcc/x86_64-w64-mingw32/6.2.0/../../../../x86_64-w64-mingw32/lib/../lib/libmsvcrt.a(dekes01208.o)
                              D:/ITI/lectures/5-Intro to ES- Assaf/Tools/General Tools/mingw64/bin/../lib/gcc/x86_64-w64-mingw32/6.2.0/../../../../x86_64-w64-mingw32/lib/../lib/libmingw32.a(lib64_libmingw32_a-pesect.o) (strncmp)
D:/ITI/lectures/5-Intro to ES- Assaf/Tools/General Tools/mingw64/bin/../lib/gcc/x86_64-w64-mingw32/6.2.0/../../../../x86_64-w64-mingw32/lib/../lib/libmsvcrt.a(dekes01205.o)
                              D:/ITI/lectures/5-Intro to ES- Assaf/Tools/General Tools/mingw64/bin/../lib/gcc/x86_64-w64-mingw32/6.2.0/../../../../x86_64-w64-mingw32/lib/../lib/crt2.o (strlen)
D:/ITI/lectures/5-Intro to ES- Assaf/Tools/General Tools/mingw64/bin/../lib/gcc/x86_64-w64-mingw32/6.2.0/../../../../x86_64-w64-mingw32/lib/../lib/libmsvcrt.a(dekes01198.o)
                              Standard_Demo_Tasks\MessageBufferAMP.o (strcmp)
D:/ITI/lectures/5-Intro to ES- Assaf/Tools/General Tools/mingw64/bin/../lib/gcc/x86_64-w64-mingw32/6.2.0/../../../../x86_64-w64-mingw32/lib/../lib/libmsvcrt.a(dekes01189.o)
                              Standard_Demo_Tasks\MessageBufferAMP.o (sprintf)
D:/ITI/lectures/5-Intro to ES- Assaf/Tools/General Tools/mingw64/bin/../lib/gcc/x86_64-w64-mingw32/6.2.0/../../../../x86_64-w64-mingw32/lib/../lib/libmsvcrt.a(dekes01184.o)
                              D:/ITI/lectures/5-Intro to ES- Assaf/Tools/General Tools/mingw64/bin/../lib/gcc/x86_64-w64-mingw32/6.2.0/../../../../x86_64-w64-mingw32/lib/../lib/libmingw32.a(lib64_libmingw32_a-crt_handler.o) (signal)
D:/ITI/lectures/5-Intro to ES- Assaf/Tools/General Tools/mingw64/bin/../lib/gcc/x86_64-w64-mingw32/6.2.0/../../../../x86_64-w64-mingw32/lib/../lib/libmsvcrt.a(dekes01173.o)
                              main_full.o (rand)
D:/ITI/lectures/5-Intro to ES- Assaf/Tools/General Tools/mingw64/bin/../lib/gcc/x86_64-w64-mingw32/6.2.0/../../../../x86_64-w64-mingw32/lib/../lib/libmsvcrt.a(dekes01167.o)
                              FreeRTOS_Source\portable\MSVC-MingW\port.o (puts)
D:/ITI/lectures/5-Intro to ES- Assaf/Tools/General Tools/mingw64/bin/../lib/gcc/x86_64-w64-mingw32/6.2.0/../../../../x86_64-w64-mingw32/lib/../lib/libmsvcrt.a(dekes01166.o)
                              MyTask.o (putchar)
D:/ITI/lectures/5-Intro to ES- Assaf/Tools/General Tools/mingw64/bin/../lib/gcc/x86_64-w64-mingw32/6.2.0/../../../../x86_64-w64-mingw32/lib/../lib/libmsvcrt.a(dekes01163.o)
                              MyTask.o (printf)
D:/ITI/lectures/5-Intro to ES- Assaf/Tools/General Tools/mingw64/bin/../lib/gcc/x86_64-w64-mingw32/6.2.0/../../../../x86_64-w64-mingw32/lib/../lib/libmsvcrt.a(dekes01156.o)
                              FreeRTOS_Source\stream_buffer.o (memset)
D:/ITI/lectures/5-Intro to ES- Assaf/Tools/General Tools/mingw64/bin/../lib/gcc/x86_64-w64-mingw32/6.2.0/../../../../x86_64-w64-mingw32/lib/../lib/libmsvcrt.a(dekes01154.o)
                              D:/ITI/lectures/5-Intro to ES- Assaf/Tools/General Tools/mingw64/bin/../lib/gcc/x86_64-w64-mingw32/6.2.0/../../../../x86_64-w64-mingw32/lib/../lib/crt2.o (memcpy)
D:/ITI/lectures/5-Intro to ES- Assaf/Tools/General Tools/mingw64/bin/../lib/gcc/x86_64-w64-mingw32/6.2.0/../../../../x86_64-w64-mingw32/lib/../lib/libmsvcrt.a(dekes01153.o)
                              Standard_Demo_Tasks\MessageBufferDemo.o (memcmp)
D:/ITI/lectures/5-Intro to ES- Assaf/Tools/General Tools/mingw64/bin/../lib/gcc/x86_64-w64-mingw32/6.2.0/../../../../x86_64-w64-mingw32/lib/../lib/libmsvcrt.a(dekes01146.o)
                              D:/ITI/lectures/5-Intro to ES- Assaf/Tools/General Tools/mingw64/bin/../lib/gcc/x86_64-w64-mingw32/6.2.0/../../../../x86_64-w64-mingw32/lib/../lib/crt2.o (malloc)
D:/ITI/lectures/5-Intro to ES- Assaf/Tools/General Tools/mingw64/bin/../lib/gcc/x86_64-w64-mingw32/6.2.0/../../../../x86_64-w64-mingw32/lib/../lib/libmsvcrt.a(dekes01099.o)
                              D:/ITI/lectures/5-Intro to ES- Assaf/Tools/General Tools/mingw64/bin/../lib/gcc/x86_64-w64-mingw32/6.2.0/../../../../x86_64-w64-mingw32/lib/../lib/libmingw32.a(lib64_libmingw32_a-pseudo-reloc.o) (fwrite)
D:/ITI/lectures/5-Intro to ES- Assaf/Tools/General Tools/mingw64/bin/../lib/gcc/x86_64-w64-mingw32/6.2.0/../../../../x86_64-w64-mingw32/lib/../lib/libmsvcrt.a(dekes01087.o)
                              D:/ITI/lectures/5-Intro to ES- Assaf/Tools/General Tools/mingw64/bin/../lib/gcc/x86_64-w64-mingw32/6.2.0/../../../../x86_64-w64-mingw32/lib/../lib/libmingw32.a(lib64_libmingw32_a-tlsthrd.o) (free)
D:/ITI/lectures/5-Intro to ES- Assaf/Tools/General Tools/mingw64/bin/../lib/gcc/x86_64-w64-mingw32/6.2.0/../../../../x86_64-w64-mingw32/lib/../lib/libmsvcrt.a(dekes01080.o)
                              D:/ITI/lectures/5-Intro to ES- Assaf/Tools/General Tools/mingw64/bin/../lib/gcc/x86_64-w64-mingw32/6.2.0/../../../../x86_64-w64-mingw32/lib/../lib/libmingw32.a(lib64_libmingw32_a-merr.o) (fprintf)
D:/ITI/lectures/5-Intro to ES- Assaf/Tools/General Tools/mingw64/bin/../lib/gcc/x86_64-w64-mingw32/6.2.0/../../../../x86_64-w64-mingw32/lib/../lib/libmsvcrt.a(dekes01078.o)
                              main.o (fopen)
D:/ITI/lectures/5-Intro to ES- Assaf/Tools/General Tools/mingw64/bin/../lib/gcc/x86_64-w64-mingw32/6.2.0/../../../../x86_64-w64-mingw32/lib/../lib/libmsvcrt.a(dekes01068.o)
                              main_blinky.o (fflush)
D:/ITI/lectures/5-Intro to ES- Assaf/Tools/General Tools/mingw64/bin/../lib/gcc/x86_64-w64-mingw32/6.2.0/../../../../x86_64-w64-mingw32/lib/../lib/libmsvcrt.a(dekes01065.o)
                              main.o (fclose)
D:/ITI/lectures/5-Intro to ES- Assaf/Tools/General Tools/mingw64/bin/../lib/gcc/x86_64-w64-mingw32/6.2.0/../../../../x86_64-w64-mingw32/lib/../lib/libmsvcrt.a(dekes01061.o)
                              D:/ITI/lectures/5-Intro to ES- Assaf/Tools/General Tools/mingw64/bin/../lib/gcc/x86_64-w64-mingw32/6.2.0/../../../../x86_64-w64-mingw32/lib/../lib/crt2.o (exit)
D:/ITI/lectures/5-Intro to ES- Assaf/Tools/General Tools/mingw64/bin/../lib/gcc/x86_64-w64-mingw32/6.2.0/../../../../x86_64-w64-mingw32/lib/../lib/libmsvcrt.a(dekes01048.o)
                              D:/ITI/lectures/5-Intro to ES- Assaf/Tools/General Tools/mingw64/bin/../lib/gcc/x86_64-w64-mingw32/6.2.0/../../../../x86_64-w64-mingw32/lib/../lib/libmingw32.a(lib64_libmingw32_a-tlsthrd.o) (calloc)
D:/ITI/lectures/5-Intro to ES- Assaf/Tools/General Tools/mingw64/bin/../lib/gcc/x86_64-w64-mingw32/6.2.0/../../../../x86_64-w64-mingw32/lib/../lib/libmsvcrt.a(dekes01028.o)
                              D:/ITI/lectures/5-Intro to ES- Assaf/Tools/General Tools/mingw64/bin/../lib/gcc/x86_64-w64-mingw32/6.2.0/../../../../x86_64-w64-mingw32/lib/../lib/libmingw32.a(lib64_libmingw32_a-gs_support.o) (abort)
D:/ITI/lectures/5-Intro to ES- Assaf/Tools/General Tools/mingw64/bin/../lib/gcc/x86_64-w64-mingw32/6.2.0/../../../../x86_64-w64-mingw32/lib/../lib/libmsvcrt.a(dekes00820.o)
                              D:/ITI/lectures/5-Intro to ES- Assaf/Tools/General Tools/mingw64/bin/../lib/gcc/x86_64-w64-mingw32/6.2.0/../../../../x86_64-w64-mingw32/lib/../lib/libmingw32.a(lib64_libmingw32_a-atonexit.o) (_unlock)
D:/ITI/lectures/5-Intro to ES- Assaf/Tools/General Tools/mingw64/bin/../lib/gcc/x86_64-w64-mingw32/6.2.0/../../../../x86_64-w64-mingw32/lib/../lib/libmsvcrt.a(dekes00611.o)
                              D:/ITI/lectures/5-Intro to ES- Assaf/Tools/General Tools/mingw64/bin/../lib/gcc/x86_64-w64-mingw32/6.2.0/../../../../x86_64-w64-mingw32/lib/../lib/libmingw32.a(lib64_libmingw32_a-atonexit.o) (__imp__onexit)
D:/ITI/lectures/5-Intro to ES- Assaf/Tools/General Tools/mingw64/bin/../lib/gcc/x86_64-w64-mingw32/6.2.0/../../../../x86_64-w64-mingw32/lib/../lib/libmsvcrt.a(dekes00438.o)
                              D:/ITI/lectures/5-Intro to ES- Assaf/Tools/General Tools/mingw64/bin/../lib/gcc/x86_64-w64-mingw32/6.2.0/../../../../x86_64-w64-mingw32/lib/../lib/libmingw32.a(lib64_libmingw32_a-atonexit.o) (_lock)
D:/ITI/lectures/5-Intro to ES- Assaf/Tools/General Tools/mingw64/bin/../lib/gcc/x86_64-w64-mingw32/6.2.0/../../../../x86_64-w64-mingw32/lib/../lib/libmsvcrt.a(dekes00330.o)
                              D:/ITI/lectures/5-Intro to ES- Assaf/Tools/General Tools/mingw64/bin/../lib/gcc/x86_64-w64-mingw32/6.2.0/../../../../x86_64-w64-mingw32/lib/../lib/crt2.o (_initterm)
D:/ITI/lectures/5-Intro to ES- Assaf/Tools/General Tools/mingw64/bin/../lib/gcc/x86_64-w64-mingw32/6.2.0/../../../../x86_64-w64-mingw32/lib/../lib/libmsvcrt.a(dekes00252.o)
                              D:/ITI/lectures/5-Intro to ES- Assaf/Tools/General Tools/mingw64/bin/../lib/gcc/x86_64-w64-mingw32/6.2.0/../../../../x86_64-w64-mingw32/lib/../lib/crt2.o (__imp__fmode)
D:/ITI/lectures/5-Intro to ES- Assaf/Tools/General Tools/mingw64/bin/../lib/gcc/x86_64-w64-mingw32/6.2.0/../../../../x86_64-w64-mingw32/lib/../lib/libmsvcrt.a(dekes00141.o)
                              D:/ITI/lectures/5-Intro to ES- Assaf/Tools/General Tools/mingw64/bin/../lib/gcc/x86_64-w64-mingw32/6.2.0/../../../../x86_64-w64-mingw32/lib/../lib/crt2.o (_cexit)
D:/ITI/lectures/5-Intro to ES- Assaf/Tools/General Tools/mingw64/bin/../lib/gcc/x86_64-w64-mingw32/6.2.0/../../../../x86_64-w64-mingw32/lib/../lib/libmsvcrt.a(dekes00123.o)
                              D:/ITI/lectures/5-Intro to ES- Assaf/Tools/General Tools/mingw64/bin/../lib/gcc/x86_64-w64-mingw32/6.2.0/../../../../x86_64-w64-mingw32/lib/../lib/crt2.o (_amsg_exit)
D:/ITI/lectures/5-Intro to ES- Assaf/Tools/General Tools/mingw64/bin/../lib/gcc/x86_64-w64-mingw32/6.2.0/../../../../x86_64-w64-mingw32/lib/../lib/libmsvcrt.a(dekes00116.o)
                              D:/ITI/lectures/5-Intro to ES- Assaf/Tools/General Tools/mingw64/bin/../lib/gcc/x86_64-w64-mingw32/6.2.0/../../../../x86_64-w64-mingw32/lib/../lib/crt2.o (__imp__acmdln)
D:/ITI/lectures/5-Intro to ES- Assaf/Tools/General Tools/mingw64/bin/../lib/gcc/x86_64-w64-mingw32/6.2.0/../../../../x86_64-w64-mingw32/lib/../lib/libmsvcrt.a(dekes00099.o)
                              D:/ITI/lectures/5-Intro to ES- Assaf/Tools/General Tools/mingw64/bin/../lib/gcc/x86_64-w64-mingw32/6.2.0/../../../../x86_64-w64-mingw32/lib/../lib/libmingw32.a(lib64_libmingw32_a-merr.o) (__setusermatherr)
D:/ITI/lectures/5-Intro to ES- Assaf/Tools/General Tools/mingw64/bin/../lib/gcc/x86_64-w64-mingw32/6.2.0/../../../../x86_64-w64-mingw32/lib/../lib/libmsvcrt.a(dekes00097.o)
                              D:/ITI/lectures/5-Intro to ES- Assaf/Tools/General Tools/mingw64/bin/../lib/gcc/x86_64-w64-mingw32/6.2.0/../../../../x86_64-w64-mingw32/lib/../lib/crt2.o (__set_app_type)
D:/ITI/lectures/5-Intro to ES- Assaf/Tools/General Tools/mingw64/bin/../lib/gcc/x86_64-w64-mingw32/6.2.0/../../../../x86_64-w64-mingw32/lib/../lib/libmsvcrt.a(dekes00091.o)
                              D:/ITI/lectures/5-Intro to ES- Assaf/Tools/General Tools/mingw64/bin/../lib/gcc/x86_64-w64-mingw32/6.2.0/../../../../x86_64-w64-mingw32/lib/../lib/libmingw32.a(lib64_libmingw32_a-charmax.o) (__imp___lconv_init)
D:/ITI/lectures/5-Intro to ES- Assaf/Tools/General Tools/mingw64/bin/../lib/gcc/x86_64-w64-mingw32/6.2.0/../../../../x86_64-w64-mingw32/lib/../lib/libmsvcrt.a(dekes00083.o)
                              D:/ITI/lectures/5-Intro to ES- Assaf/Tools/General Tools/mingw64/bin/../lib/gcc/x86_64-w64-mingw32/6.2.0/../../../../x86_64-w64-mingw32/lib/../lib/libmingw32.a(lib64_libmingw32_a-merr.o) (__iob_func)
D:/ITI/lectures/5-Intro to ES- Assaf/Tools/General Tools/mingw64/bin/../lib/gcc/x86_64-w64-mingw32/6.2.0/../../../../x86_64-w64-mingw32/lib/../lib/libmsvcrt.a(dekes00082.o)
                              D:/ITI/lectures/5-Intro to ES- Assaf/Tools/General Tools/mingw64/bin/../lib/gcc/x86_64-w64-mingw32/6.2.0/../../../../x86_64-w64-mingw32/lib/../lib/crt2.o (__imp___initenv)
D:/ITI/lectures/5-Intro to ES- Assaf/Tools/General Tools/mingw64/bin/../lib/gcc/x86_64-w64-mingw32/6.2.0/../../../../x86_64-w64-mingw32/lib/../lib/libmsvcrt.a(dekes00081.o)
                              D:/ITI/lectures/5-Intro to ES- Assaf/Tools/General Tools/mingw64/bin/../lib/gcc/x86_64-w64-mingw32/6.2.0/../../../../x86_64-w64-mingw32/lib/../lib/crt2.o (__getmainargs)
D:/ITI/lectures/5-Intro to ES- Assaf/Tools/General Tools/mingw64/bin/../lib/gcc/x86_64-w64-mingw32/6.2.0/../../../../x86_64-w64-mingw32/lib/../lib/libmsvcrt.a(dekes00078.o)
                              D:/ITI/lectures/5-Intro to ES- Assaf/Tools/General Tools/mingw64/bin/../lib/gcc/x86_64-w64-mingw32/6.2.0/../../../../x86_64-w64-mingw32/lib/../lib/libmingw32.a(lib64_libmingw32_a-atonexit.o) (__dllonexit)
D:/ITI/lectures/5-Intro to ES- Assaf/Tools/General Tools/mingw64/bin/../lib/gcc/x86_64-w64-mingw32/6.2.0/../../../../x86_64-w64-mingw32/lib/../lib/libmsvcrt.a(dekes00055.o)
                              D:/ITI/lectures/5-Intro to ES- Assaf/Tools/General Tools/mingw64/bin/../lib/gcc/x86_64-w64-mingw32/6.2.0/../../../../x86_64-w64-mingw32/lib/../lib/crt2.o (__C_specific_handler)
D:/ITI/lectures/5-Intro to ES- Assaf/Tools/General Tools/mingw64/bin/../lib/gcc/x86_64-w64-mingw32/6.2.0/../../../../x86_64-w64-mingw32/lib/../lib/libmsvcrt.a(lib64_libmsvcrt_a-invalid_parameter_handler.o)
                              D:/ITI/lectures/5-Intro to ES- Assaf/Tools/General Tools/mingw64/bin/../lib/gcc/x86_64-w64-mingw32/6.2.0/../../../../x86_64-w64-mingw32/lib/../lib/crt2.o (_set_invalid_parameter_handler)
D:/ITI/lectures/5-Intro to ES- Assaf/Tools/General Tools/mingw64/bin/../lib/gcc/x86_64-w64-mingw32/6.2.0/../../../../x86_64-w64-mingw32/lib/../lib/libmsvcrt.a(dekeh.o)
                              D:/ITI/lectures/5-Intro to ES- Assaf/Tools/General Tools/mingw64/bin/../lib/gcc/x86_64-w64-mingw32/6.2.0/../../../../x86_64-w64-mingw32/lib/../lib/libmsvcrt.a(dekes01240.o) (_head_lib64_libmsvcrt_a)
D:/ITI/lectures/5-Intro to ES- Assaf/Tools/General Tools/mingw64/bin/../lib/gcc/x86_64-w64-mingw32/6.2.0/../../../../x86_64-w64-mingw32/lib/../lib/libmsvcrt.a(deket.o)
                              D:/ITI/lectures/5-Intro to ES- Assaf/Tools/General Tools/mingw64/bin/../lib/gcc/x86_64-w64-mingw32/6.2.0/../../../../x86_64-w64-mingw32/lib/../lib/libmsvcrt.a(dekeh.o) (__lib64_libmsvcrt_a_iname)
D:/ITI/lectures/5-Intro to ES- Assaf/Tools/General Tools/mingw64/bin/../lib/gcc/x86_64-w64-mingw32/6.2.0/../../../../x86_64-w64-mingw32/lib/../lib/libkernel32.a(dmmds01274.o)
                              FreeRTOS_Source\portable\MSVC-MingW\port.o (__imp_WaitForSingleObject)
D:/ITI/lectures/5-Intro to ES- Assaf/Tools/General Tools/mingw64/bin/../lib/gcc/x86_64-w64-mingw32/6.2.0/../../../../x86_64-w64-mingw32/lib/../lib/libkernel32.a(dmmds01272.o)
                              FreeRTOS_Source\portable\MSVC-MingW\port.o (__imp_WaitForMultipleObjects)
D:/ITI/lectures/5-Intro to ES- Assaf/Tools/General Tools/mingw64/bin/../lib/gcc/x86_64-w64-mingw32/6.2.0/../../../../x86_64-w64-mingw32/lib/../lib/libkernel32.a(dmmds01266.o)
                              D:/ITI/lectures/5-Intro to ES- Assaf/Tools/General Tools/mingw64/bin/../lib/gcc/x86_64-w64-mingw32/6.2.0/../../../../x86_64-w64-mingw32/lib/../lib/libmingw32.a(lib64_libmingw32_a-pseudo-reloc.o) (__imp_VirtualQuery)
D:/ITI/lectures/5-Intro to ES- Assaf/Tools/General Tools/mingw64/bin/../lib/gcc/x86_64-w64-mingw32/6.2.0/../../../../x86_64-w64-mingw32/lib/../lib/libkernel32.a(dmmds01264.o)
                              D:/ITI/lectures/5-Intro to ES- Assaf/Tools/General Tools/mingw64/bin/../lib/gcc/x86_64-w64-mingw32/6.2.0/../../../../x86_64-w64-mingw32/lib/../lib/libmingw32.a(lib64_libmingw32_a-pseudo-reloc.o) (__imp_VirtualProtect)
D:/ITI/lectures/5-Intro to ES- Assaf/Tools/General Tools/mingw64/bin/../lib/gcc/x86_64-w64-mingw32/6.2.0/../../../../x86_64-w64-mingw32/lib/../lib/libkernel32.a(dmmds01234.o)
                              D:/ITI/lectures/5-Intro to ES- Assaf/Tools/General Tools/mingw64/bin/../lib/gcc/x86_64-w64-mingw32/6.2.0/../../../../x86_64-w64-mingw32/lib/../lib/libmingw32.a(lib64_libmingw32_a-gs_support.o) (__imp_UnhandledExceptionFilter)
D:/ITI/lectures/5-Intro to ES- Assaf/Tools/General Tools/mingw64/bin/../lib/gcc/x86_64-w64-mingw32/6.2.0/../../../../x86_64-w64-mingw32/lib/../lib/libkernel32.a(dmmds01221.o)
                              D:/ITI/lectures/5-Intro to ES- Assaf/Tools/General Tools/mingw64/bin/../lib/gcc/x86_64-w64-mingw32/6.2.0/../../../../x86_64-w64-mingw32/lib/../lib/libmingw32.a(lib64_libmingw32_a-tlsthrd.o) (__imp_TlsGetValue)
D:/ITI/lectures/5-Intro to ES- Assaf/Tools/General Tools/mingw64/bin/../lib/gcc/x86_64-w64-mingw32/6.2.0/../../../../x86_64-w64-mingw32/lib/../lib/libkernel32.a(dmmds01215.o)
                              FreeRTOS_Source\portable\MSVC-MingW\port.o (__imp_TerminateThread)
D:/ITI/lectures/5-Intro to ES- Assaf/Tools/General Tools/mingw64/bin/../lib/gcc/x86_64-w64-mingw32/6.2.0/../../../../x86_64-w64-mingw32/lib/../lib/libkernel32.a(dmmds01214.o)
                              D:/ITI/lectures/5-Intro to ES- Assaf/Tools/General Tools/mingw64/bin/../lib/gcc/x86_64-w64-mingw32/6.2.0/../../../../x86_64-w64-mingw32/lib/../lib/libmingw32.a(lib64_libmingw32_a-gs_support.o) (__imp_TerminateProcess)
D:/ITI/lectures/5-Intro to ES- Assaf/Tools/General Tools/mingw64/bin/../lib/gcc/x86_64-w64-mingw32/6.2.0/../../../../x86_64-w64-mingw32/lib/../lib/libkernel32.a(dmmds01208.o)
                              FreeRTOS_Source\portable\MSVC-MingW\port.o (__imp_SuspendThread)
D:/ITI/lectures/5-Intro to ES- Assaf/Tools/General Tools/mingw64/bin/../lib/gcc/x86_64-w64-mingw32/6.2.0/../../../../x86_64-w64-mingw32/lib/../lib/libkernel32.a(dmmds01200.o)
                              D:/ITI/lectures/5-Intro to ES- Assaf/Tools/General Tools/mingw64/bin/../lib/gcc/x86_64-w64-mingw32/6.2.0/../../../../x86_64-w64-mingw32/lib/../lib/crt2.o (__imp_Sleep)
D:/ITI/lectures/5-Intro to ES- Assaf/Tools/General Tools/mingw64/bin/../lib/gcc/x86_64-w64-mingw32/6.2.0/../../../../x86_64-w64-mingw32/lib/../lib/libkernel32.a(dmmds01187.o)
                              D:/ITI/lectures/5-Intro to ES- Assaf/Tools/General Tools/mingw64/bin/../lib/gcc/x86_64-w64-mingw32/6.2.0/../../../../x86_64-w64-mingw32/lib/../lib/crt2.o (__imp_SetUnhandledExceptionFilter)
D:/ITI/lectures/5-Intro to ES- Assaf/Tools/General Tools/mingw64/bin/../lib/gcc/x86_64-w64-mingw32/6.2.0/../../../../x86_64-w64-mingw32/lib/../lib/libkernel32.a(dmmds01175.o)
                              FreeRTOS_Source\portable\MSVC-MingW\port.o (__imp_SetThreadPriorityBoost)
D:/ITI/lectures/5-Intro to ES- Assaf/Tools/General Tools/mingw64/bin/../lib/gcc/x86_64-w64-mingw32/6.2.0/../../../../x86_64-w64-mingw32/lib/../lib/libkernel32.a(dmmds01174.o)
                              FreeRTOS_Source\portable\MSVC-MingW\port.o (__imp_SetThreadPriority)
D:/ITI/lectures/5-Intro to ES- Assaf/Tools/General Tools/mingw64/bin/../lib/gcc/x86_64-w64-mingw32/6.2.0/../../../../x86_64-w64-mingw32/lib/../lib/libkernel32.a(dmmds01165.o)
                              FreeRTOS_Source\portable\MSVC-MingW\port.o (__imp_SetThreadAffinityMask)
D:/ITI/lectures/5-Intro to ES- Assaf/Tools/General Tools/mingw64/bin/../lib/gcc/x86_64-w64-mingw32/6.2.0/../../../../x86_64-w64-mingw32/lib/../lib/libkernel32.a(dmmds01146.o)
                              FreeRTOS_Source\portable\MSVC-MingW\port.o (__imp_SetPriorityClass)
D:/ITI/lectures/5-Intro to ES- Assaf/Tools/General Tools/mingw64/bin/../lib/gcc/x86_64-w64-mingw32/6.2.0/../../../../x86_64-w64-mingw32/lib/../lib/libkernel32.a(dmmds01111.o)
                              FreeRTOS_Source\portable\MSVC-MingW\port.o (__imp_SetEvent)
D:/ITI/lectures/5-Intro to ES- Assaf/Tools/General Tools/mingw64/bin/../lib/gcc/x86_64-w64-mingw32/6.2.0/../../../../x86_64-w64-mingw32/lib/../lib/libkernel32.a(dmmds01067.o)
                              FreeRTOS_Source\portable\MSVC-MingW\port.o (__imp_SetConsoleCtrlHandler)
D:/ITI/lectures/5-Intro to ES- Assaf/Tools/General Tools/mingw64/bin/../lib/gcc/x86_64-w64-mingw32/6.2.0/../../../../x86_64-w64-mingw32/lib/../lib/libkernel32.a(dmmds01044.o)
                              D:/ITI/lectures/5-Intro to ES- Assaf/Tools/General Tools/mingw64/bin/../lib/gcc/x86_64-w64-mingw32/6.2.0/../../../../x86_64-w64-mingw32/lib/../lib/libmingw32.a(lib64_libmingw32_a-gs_support.o) (__imp_RtlVirtualUnwind)
D:/ITI/lectures/5-Intro to ES- Assaf/Tools/General Tools/mingw64/bin/../lib/gcc/x86_64-w64-mingw32/6.2.0/../../../../x86_64-w64-mingw32/lib/../lib/libkernel32.a(dmmds01037.o)
                              D:/ITI/lectures/5-Intro to ES- Assaf/Tools/General Tools/mingw64/bin/../lib/gcc/x86_64-w64-mingw32/6.2.0/../../../../x86_64-w64-mingw32/lib/../lib/libmingw32.a(lib64_libmingw32_a-gs_support.o) (__imp_RtlLookupFunctionEntry)
D:/ITI/lectures/5-Intro to ES- Assaf/Tools/General Tools/mingw64/bin/../lib/gcc/x86_64-w64-mingw32/6.2.0/../../../../x86_64-w64-mingw32/lib/../lib/libkernel32.a(dmmds01030.o)
                              D:/ITI/lectures/5-Intro to ES- Assaf/Tools/General Tools/mingw64/bin/../lib/gcc/x86_64-w64-mingw32/6.2.0/../../../../x86_64-w64-mingw32/lib/../lib/libmingw32.a(lib64_libmingw32_a-gs_support.o) (__imp_RtlCaptureContext)
D:/ITI/lectures/5-Intro to ES- Assaf/Tools/General Tools/mingw64/bin/../lib/gcc/x86_64-w64-mingw32/6.2.0/../../../../x86_64-w64-mingw32/lib/../lib/libkernel32.a(dmmds01029.o)
                              D:/ITI/lectures/5-Intro to ES- Assaf/Tools/General Tools/mingw64/bin/../lib/gcc/x86_64-w64-mingw32/6.2.0/../../../../x86_64-w64-mingw32/lib/../lib/libmingw32.a(lib64_libmingw32_a-crt_handler.o) (__imp_RtlAddFunctionTable)
D:/ITI/lectures/5-Intro to ES- Assaf/Tools/General Tools/mingw64/bin/../lib/gcc/x86_64-w64-mingw32/6.2.0/../../../../x86_64-w64-mingw32/lib/../lib/libkernel32.a(dmmds01028.o)
                              FreeRTOS_Source\portable\MSVC-MingW\port.o (__imp_ResumeThread)
D:/ITI/lectures/5-Intro to ES- Assaf/Tools/General Tools/mingw64/bin/../lib/gcc/x86_64-w64-mingw32/6.2.0/../../../../x86_64-w64-mingw32/lib/../lib/libkernel32.a(dmmds01024.o)
                              FreeRTOS_Source\portable\MSVC-MingW\port.o (__imp_ResetEvent)
D:/ITI/lectures/5-Intro to ES- Assaf/Tools/General Tools/mingw64/bin/../lib/gcc/x86_64-w64-mingw32/6.2.0/../../../../x86_64-w64-mingw32/lib/../lib/libkernel32.a(dmmds01003.o)
                              FreeRTOS_Source\portable\MSVC-MingW\port.o (__imp_ReleaseMutex)
D:/ITI/lectures/5-Intro to ES- Assaf/Tools/General Tools/mingw64/bin/../lib/gcc/x86_64-w64-mingw32/6.2.0/../../../../x86_64-w64-mingw32/lib/../lib/libkernel32.a(dmmds00959.o)
                              Run-time-stats-utils.o (__imp_QueryPerformanceFrequency)
D:/ITI/lectures/5-Intro to ES- Assaf/Tools/General Tools/mingw64/bin/../lib/gcc/x86_64-w64-mingw32/6.2.0/../../../../x86_64-w64-mingw32/lib/../lib/libkernel32.a(dmmds00958.o)
                              Run-time-stats-utils.o (__imp_QueryPerformanceCounter)
D:/ITI/lectures/5-Intro to ES- Assaf/Tools/General Tools/mingw64/bin/../lib/gcc/x86_64-w64-mingw32/6.2.0/../../../../x86_64-w64-mingw32/lib/../lib/libkernel32.a(dmmds00844.o)
                              D:/ITI/lectures/5-Intro to ES- Assaf/Tools/General Tools/mingw64/bin/../lib/gcc/x86_64-w64-mingw32/6.2.0/../../../../x86_64-w64-mingw32/lib/../lib/libmingw32.a(lib64_libmingw32_a-tlsthrd.o) (__imp_LeaveCriticalSection)
D:/ITI/lectures/5-Intro to ES- Assaf/Tools/General Tools/mingw64/bin/../lib/gcc/x86_64-w64-mingw32/6.2.0/../../../../x86_64-w64-mingw32/lib/../lib/libkernel32.a(dmmds00762.o)
                              D:/ITI/lectures/5-Intro to ES- Assaf/Tools/General Tools/mingw64/bin/../lib/gcc/x86_64-w64-mingw32/6.2.0/../../../../x86_64-w64-mingw32/lib/../lib/libmingw32.a(lib64_libmingw32_a-tlsthrd.o) (__imp_InitializeCriticalSection)
D:/ITI/lectures/5-Intro to ES- Assaf/Tools/General Tools/mingw64/bin/../lib/gcc/x86_64-w64-mingw32/6.2.0/../../../../x86_64-w64-mingw32/lib/../lib/libkernel32.a(dmmds00678.o)
                              D:/ITI/lectures/5-Intro to ES- Assaf/Tools/General Tools/mingw64/bin/../lib/gcc/x86_64-w64-mingw32/6.2.0/../../../../x86_64-w64-mingw32/lib/../lib/libmingw32.a(lib64_libmingw32_a-gs_support.o) (__imp_GetTickCount)
D:/ITI/lectures/5-Intro to ES- Assaf/Tools/General Tools/mingw64/bin/../lib/gcc/x86_64-w64-mingw32/6.2.0/../../../../x86_64-w64-mingw32/lib/../lib/libkernel32.a(dmmds00665.o)
                              FreeRTOS_Source\portable\MSVC-MingW\port.o (__imp_GetThreadContext)
D:/ITI/lectures/5-Intro to ES- Assaf/Tools/General Tools/mingw64/bin/../lib/gcc/x86_64-w64-mingw32/6.2.0/../../../../x86_64-w64-mingw32/lib/../lib/libkernel32.a(dmmds00651.o)
                              D:/ITI/lectures/5-Intro to ES- Assaf/Tools/General Tools/mingw64/bin/../lib/gcc/x86_64-w64-mingw32/6.2.0/../../../../x86_64-w64-mingw32/lib/../lib/libmingw32.a(lib64_libmingw32_a-gs_support.o) (__imp_GetSystemTimeAsFileTime)
D:/ITI/lectures/5-Intro to ES- Assaf/Tools/General Tools/mingw64/bin/../lib/gcc/x86_64-w64-mingw32/6.2.0/../../../../x86_64-w64-mingw32/lib/../lib/libkernel32.a(dmmds00645.o)
                              FreeRTOS_Source\portable\MSVC-MingW\port.o (__imp_GetSystemInfo)
D:/ITI/lectures/5-Intro to ES- Assaf/Tools/General Tools/mingw64/bin/../lib/gcc/x86_64-w64-mingw32/6.2.0/../../../../x86_64-w64-mingw32/lib/../lib/libkernel32.a(dmmds00628.o)
                              D:/ITI/lectures/5-Intro to ES- Assaf/Tools/General Tools/mingw64/bin/../lib/gcc/x86_64-w64-mingw32/6.2.0/../../../../x86_64-w64-mingw32/lib/../lib/crt2.o (__imp_GetStartupInfoA)
D:/ITI/lectures/5-Intro to ES- Assaf/Tools/General Tools/mingw64/bin/../lib/gcc/x86_64-w64-mingw32/6.2.0/../../../../x86_64-w64-mingw32/lib/../lib/libkernel32.a(dmmds00599.o)
                              D:/ITI/lectures/5-Intro to ES- Assaf/Tools/General Tools/mingw64/bin/../lib/gcc/x86_64-w64-mingw32/6.2.0/crtbegin.o (__imp_GetProcAddress)
D:/ITI/lectures/5-Intro to ES- Assaf/Tools/General Tools/mingw64/bin/../lib/gcc/x86_64-w64-mingw32/6.2.0/../../../../x86_64-w64-mingw32/lib/../lib/libkernel32.a(dmmds00549.o)
                              D:/ITI/lectures/5-Intro to ES- Assaf/Tools/General Tools/mingw64/bin/../lib/gcc/x86_64-w64-mingw32/6.2.0/crtbegin.o (__imp_GetModuleHandleA)
D:/ITI/lectures/5-Intro to ES- Assaf/Tools/General Tools/mingw64/bin/../lib/gcc/x86_64-w64-mingw32/6.2.0/../../../../x86_64-w64-mingw32/lib/../lib/libkernel32.a(dmmds00529.o)
                              D:/ITI/lectures/5-Intro to ES- Assaf/Tools/General Tools/mingw64/bin/../lib/gcc/x86_64-w64-mingw32/6.2.0/../../../../x86_64-w64-mingw32/lib/../lib/libmingw32.a(lib64_libmingw32_a-pseudo-reloc.o) (__imp_GetLastError)
D:/ITI/lectures/5-Intro to ES- Assaf/Tools/General Tools/mingw64/bin/../lib/gcc/x86_64-w64-mingw32/6.2.0/../../../../x86_64-w64-mingw32/lib/../lib/libkernel32.a(dmmds00467.o)
                              D:/ITI/lectures/5-Intro to ES- Assaf/Tools/General Tools/mingw64/bin/../lib/gcc/x86_64-w64-mingw32/6.2.0/../../../../x86_64-w64-mingw32/lib/../lib/libmingw32.a(lib64_libmingw32_a-gs_support.o) (__imp_GetCurrentThreadId)
D:/ITI/lectures/5-Intro to ES- Assaf/Tools/General Tools/mingw64/bin/../lib/gcc/x86_64-w64-mingw32/6.2.0/../../../../x86_64-w64-mingw32/lib/../lib/libkernel32.a(dmmds00466.o)
                              FreeRTOS_Source\portable\MSVC-MingW\port.o (__imp_GetCurrentThread)
D:/ITI/lectures/5-Intro to ES- Assaf/Tools/General Tools/mingw64/bin/../lib/gcc/x86_64-w64-mingw32/6.2.0/../../../../x86_64-w64-mingw32/lib/../lib/libkernel32.a(dmmds00463.o)
                              D:/ITI/lectures/5-Intro to ES- Assaf/Tools/General Tools/mingw64/bin/../lib/gcc/x86_64-w64-mingw32/6.2.0/../../../../x86_64-w64-mingw32/lib/../lib/libmingw32.a(lib64_libmingw32_a-gs_support.o) (__imp_GetCurrentProcessId)
D:/ITI/lectures/5-Intro to ES- Assaf/Tools/General Tools/mingw64/bin/../lib/gcc/x86_64-w64-mingw32/6.2.0/../../../../x86_64-w64-mingw32/lib/../lib/libkernel32.a(dmmds00462.o)
                              FreeRTOS_Source\portable\MSVC-MingW\port.o (__imp_GetCurrentProcess)
D:/ITI/lectures/5-Intro to ES- Assaf/Tools/General Tools/mingw64/bin/../lib/gcc/x86_64-w64-mingw32/6.2.0/../../../../x86_64-w64-mingw32/lib/../lib/libkernel32.a(dmmds00295.o)
                              FreeRTOS_Source\portable\MSVC-MingW\port.o (__imp_ExitThread)
D:/ITI/lectures/5-Intro to ES- Assaf/Tools/General Tools/mingw64/bin/../lib/gcc/x86_64-w64-mingw32/6.2.0/../../../../x86_64-w64-mingw32/lib/../lib/libkernel32.a(dmmds00249.o)
                              D:/ITI/lectures/5-Intro to ES- Assaf/Tools/General Tools/mingw64/bin/../lib/gcc/x86_64-w64-mingw32/6.2.0/../../../../x86_64-w64-mingw32/lib/../lib/libmingw32.a(lib64_libmingw32_a-tlsthrd.o) (__imp_EnterCriticalSection)
D:/ITI/lectures/5-Intro to ES- Assaf/Tools/General Tools/mingw64/bin/../lib/gcc/x86_64-w64-mingw32/6.2.0/../../../../x86_64-w64-mingw32/lib/../lib/libkernel32.a(dmmds00216.o)
                              D:/ITI/lectures/5-Intro to ES- Assaf/Tools/General Tools/mingw64/bin/../lib/gcc/x86_64-w64-mingw32/6.2.0/../../../../x86_64-w64-mingw32/lib/../lib/libmingw32.a(lib64_libmingw32_a-tlsthrd.o) (__imp_DeleteCriticalSection)
D:/ITI/lectures/5-Intro to ES- Assaf/Tools/General Tools/mingw64/bin/../lib/gcc/x86_64-w64-mingw32/6.2.0/../../../../x86_64-w64-mingw32/lib/../lib/libkernel32.a(dmmds00186.o)
                              FreeRTOS_Source\portable\MSVC-MingW\port.o (__imp_CreateThread)
D:/ITI/lectures/5-Intro to ES- Assaf/Tools/General Tools/mingw64/bin/../lib/gcc/x86_64-w64-mingw32/6.2.0/../../../../x86_64-w64-mingw32/lib/../lib/libkernel32.a(dmmds00160.o)
                              FreeRTOS_Source\portable\MSVC-MingW\port.o (__imp_CreateMutexA)
D:/ITI/lectures/5-Intro to ES- Assaf/Tools/General Tools/mingw64/bin/../lib/gcc/x86_64-w64-mingw32/6.2.0/../../../../x86_64-w64-mingw32/lib/../lib/libkernel32.a(dmmds00134.o)
                              FreeRTOS_Source\portable\MSVC-MingW\port.o (__imp_CreateEventA)
D:/ITI/lectures/5-Intro to ES- Assaf/Tools/General Tools/mingw64/bin/../lib/gcc/x86_64-w64-mingw32/6.2.0/../../../../x86_64-w64-mingw32/lib/../lib/libkernel32.a(dmmds00085.o)
                              FreeRTOS_Source\portable\MSVC-MingW\port.o (__imp_CloseHandle)
D:/ITI/lectures/5-Intro to ES- Assaf/Tools/General Tools/mingw64/bin/../lib/gcc/x86_64-w64-mingw32/6.2.0/../../../../x86_64-w64-mingw32/lib/../lib/libkernel32.a(dmmdh.o)
                              D:/ITI/lectures/5-Intro to ES- Assaf/Tools/General Tools/mingw64/bin/../lib/gcc/x86_64-w64-mingw32/6.2.0/../../../../x86_64-w64-mingw32/lib/../lib/libkernel32.a(dmmds01274.o) (_head_lib64_libkernel32_a)
D:/ITI/lectures/5-Intro to ES- Assaf/Tools/General Tools/mingw64/bin/../lib/gcc/x86_64-w64-mingw32/6.2.0/../../../../x86_64-w64-mingw32/lib/../lib/libkernel32.a(dmmdt.o)
                              D:/ITI/lectures/5-Intro to ES- Assaf/Tools/General Tools/mingw64/bin/../lib/gcc/x86_64-w64-mingw32/6.2.0/../../../../x86_64-w64-mingw32/lib/../lib/libkernel32.a(dmmdh.o) (__lib64_libkernel32_a_iname)

Allocating common symbols
Common symbol       size              file

xQueueSetSendingTask
                    0x8               Standard_Demo_Tasks\QueueSet.o
xHighPriorityTask   0x8               Standard_Demo_Tasks\QPeek.o
__mingw_winmain_lpCmdLine
                    0x8               D:/ITI/lectures/5-Intro to ES- Assaf/Tools/General Tools/mingw64/bin/../lib/gcc/x86_64-w64-mingw32/6.2.0/../../../../x86_64-w64-mingw32/lib/../lib/crt2.o
xMediumPriorityTask
                    0x8               Standard_Demo_Tasks\QPeek.o
xQueueRegistry      0x140             FreeRTOS_Source\queue.o
__CTOR_LIST__       0x10              D:/ITI/lectures/5-Intro to ES- Assaf/Tools/General Tools/mingw64/bin/../lib/gcc/x86_64-w64-mingw32/6.2.0/libgcc.a(_ctors.o)
__native_startup_state
                    0x4               D:/ITI/lectures/5-Intro to ES- Assaf/Tools/General Tools/mingw64/bin/../lib/gcc/x86_64-w64-mingw32/6.2.0/../../../../x86_64-w64-mingw32/lib/../lib/libmingw32.a(lib64_libmingw32_a-natstart.o)
__onexitbegin       0x8               D:/ITI/lectures/5-Intro to ES- Assaf/Tools/General Tools/mingw64/bin/../lib/gcc/x86_64-w64-mingw32/6.2.0/../../../../x86_64-w64-mingw32/lib/../lib/libmingw32.a(lib64_libmingw32_a-atonexit.o)
xHighestPriorityTask
                    0x8               Standard_Demo_Tasks\QPeek.o
__DTOR_LIST__       0x10              D:/ITI/lectures/5-Intro to ES- Assaf/Tools/General Tools/mingw64/bin/../lib/gcc/x86_64-w64-mingw32/6.2.0/libgcc.a(_ctors.o)
xCreatedTask        0x8               Standard_Demo_Tasks\death.o
__onexitend         0x8               D:/ITI/lectures/5-Intro to ES- Assaf/Tools/General Tools/mingw64/bin/../lib/gcc/x86_64-w64-mingw32/6.2.0/../../../../x86_64-w64-mingw32/lib/../lib/libmingw32.a(lib64_libmingw32_a-atonexit.o)
__native_startup_lock
                    0x8               D:/ITI/lectures/5-Intro to ES- Assaf/Tools/General Tools/mingw64/bin/../lib/gcc/x86_64-w64-mingw32/6.2.0/../../../../x86_64-w64-mingw32/lib/../lib/libmingw32.a(lib64_libmingw32_a-natstart.o)
__mingw_winmain_hInstance
                    0x8               D:/ITI/lectures/5-Intro to ES- Assaf/Tools/General Tools/mingw64/bin/../lib/gcc/x86_64-w64-mingw32/6.2.0/../../../../x86_64-w64-mingw32/lib/../lib/crt2.o
xQueueSetReceivingTask
                    0x8               Standard_Demo_Tasks\QueueSet.o
xSuspendedTestQueue
                    0x8               Standard_Demo_Tasks\dynamic.o
uxTimerTaskStack    0x460             main.o

Discarded input sections

 .drectve       0x0000000000000000       0x54 D:/ITI/lectures/5-Intro to ES- Assaf/Tools/General Tools/mingw64/bin/../lib/gcc/x86_64-w64-mingw32/6.2.0/../../../../x86_64-w64-mingw32/lib/../lib/crt2.o
 .drectve       0x0000000000000000       0x20 FreeRTOS_Source\queue.o
 .drectve       0x0000000000000000       0x68 Standard_Demo_Tasks\QPeek.o
 .drectve       0x0000000000000000       0x4c Standard_Demo_Tasks\QueueSet.o
 .drectve       0x0000000000000000       0x1c Standard_Demo_Tasks\death.o
 .drectve       0x0000000000000000       0x24 Standard_Demo_Tasks\dynamic.o
 .drectve       0x0000000000000000       0x20 main.o
 .drectve       0x0000000000000000       0x38 D:/ITI/lectures/5-Intro to ES- Assaf/Tools/General Tools/mingw64/bin/../lib/gcc/x86_64-w64-mingw32/6.2.0/../../../../x86_64-w64-mingw32/lib/../lib/libmingw32.a(lib64_libmingw32_a-atonexit.o)
 .drectve       0x0000000000000000       0x4c D:/ITI/lectures/5-Intro to ES- Assaf/Tools/General Tools/mingw64/bin/../lib/gcc/x86_64-w64-mingw32/6.2.0/../../../../x86_64-w64-mingw32/lib/../lib/libmingw32.a(lib64_libmingw32_a-natstart.o)
 .rdata$.refptr.__image_base__
                0x0000000000000000       0x10 D:/ITI/lectures/5-Intro to ES- Assaf/Tools/General Tools/mingw64/bin/../lib/gcc/x86_64-w64-mingw32/6.2.0/../../../../x86_64-w64-mingw32/lib/../lib/libmingw32.a(lib64_libmingw32_a-pseudo-reloc.o)
 .rdata$.refptr.__image_base__
                0x0000000000000000       0x10 D:/ITI/lectures/5-Intro to ES- Assaf/Tools/General Tools/mingw64/bin/../lib/gcc/x86_64-w64-mingw32/6.2.0/../../../../x86_64-w64-mingw32/lib/../lib/libmingw32.a(lib64_libmingw32_a-pesect.o)
 .drectve       0x0000000000000000       0x3c D:/ITI/lectures/5-Intro to ES- Assaf/Tools/General Tools/mingw64/bin/../lib/gcc/x86_64-w64-mingw32/6.2.0/libgcc.a(_ctors.o)

Memory Configuration

Name             Origin             Length             Attributes
*default*        0x0000000000000000 0xffffffffffffffff

Linker script and memory map

                0x0000000000400000                __image_base__ = 0x400000
                0x0000000000000000                __dll__ = 0x0
                0x0000000000400000                __ImageBase = 0x400000
                0x0000000000001000                __section_alignment__ = 0x1000
                0x0000000000000200                __file_alignment__ = 0x200
                0x0000000000000004                __major_os_version__ = 0x4
                0x0000000000000000                __minor_os_version__ = 0x0
                0x0000000000000000                __major_image_version__ = 0x0
                0x0000000000000000                __minor_image_version__ = 0x0
                0x0000000000000005                __major_subsystem_version__ = 0x5
                0x0000000000000002                __minor_subsystem_version__ = 0x2
                0x0000000000000003                __subsystem__ = 0x3
                0x0000000000200000                __size_of_stack_reserve__ = 0x200000
                0x0000000000001000                __size_of_stack_commit__ = 0x1000
                0x0000000000100000                __size_of_heap_reserve__ = 0x100000
                0x0000000000001000                __size_of_heap_commit__ = 0x1000
                0x0000000000000000                __loader_flags__ = 0x0
                0x0000000000000000                __dll_characteristics__ = 0x0
LOAD D:/ITI/lectures/5-Intro to ES- Assaf/Tools/General Tools/mingw64/bin/../lib/gcc/x86_64-w64-mingw32/6.2.0/../../../../x86_64-w64-mingw32/lib/../lib/crt2.o
LOAD D:/ITI/lectures/5-Intro to ES- Assaf/Tools/General Tools/mingw64/bin/../lib/gcc/x86_64-w64-mingw32/6.2.0/crtbegin.o
LOAD DemosModifiedForLowTickRate\recmutex.o
LOAD FreeRTOS_Source\croutine.o
LOAD FreeRTOS_Source\event_groups.o
LOAD FreeRTOS_Source\list.o
LOAD FreeRTOS_Source\portable\MSVC-MingW\port.o
LOAD FreeRTOS_Source\portable\MemMang\heap_5.o
LOAD FreeRTOS_Source\queue.o
LOAD FreeRTOS_Source\stream_buffer.o
LOAD FreeRTOS_Source\tasks.o
LOAD FreeRTOS_Source\timers.o
LOAD MyTask.o
LOAD Run-time-stats-utils.o
LOAD Standard_Demo_Tasks\AbortDelay.o
LOAD Standard_Demo_Tasks\BlockQ.o
LOAD Standard_Demo_Tasks\EventGroupsDemo.o
LOAD Standard_Demo_Tasks\GenQTest.o
LOAD Standard_Demo_Tasks\IntSemTest.o
LOAD Standard_Demo_Tasks\MessageBufferAMP.o
LOAD Standard_Demo_Tasks\MessageBufferDemo.o
LOAD Standard_Demo_Tasks\PollQ.o
LOAD Standard_Demo_Tasks\QPeek.o
LOAD Standard_Demo_Tasks\QueueOverwrite.o
LOAD Standard_Demo_Tasks\QueueSet.o
LOAD Standard_Demo_Tasks\QueueSetPolling.o
LOAD Standard_Demo_Tasks\StaticAllocation.o
LOAD Standard_Demo_Tasks\StreamBufferDemo.o
LOAD Standard_Demo_Tasks\StreamBufferInterrupt.o
LOAD Standard_Demo_Tasks\TaskNotify.o
LOAD Standard_Demo_Tasks\TimerDemo.o
LOAD Standard_Demo_Tasks\blocktim.o
LOAD Standard_Demo_Tasks\countsem.o
LOAD Standard_Demo_Tasks\death.o
LOAD Standard_Demo_Tasks\dynamic.o
LOAD Standard_Demo_Tasks\flop.o
LOAD Standard_Demo_Tasks\integer.o
LOAD Standard_Demo_Tasks\semtest.o
LOAD code_coverage_additions.o
LOAD main.o
LOAD main_blinky.o
LOAD main_full.o
LOAD D:/ITI/lectures/5-Intro to ES- Assaf/Tools/General Tools/mingw64/bin/../lib/gcc/x86_64-w64-mingw32/6.2.0/../../../../x86_64-w64-mingw32/lib/../lib/libwinmm.a
LOAD D:/ITI/lectures/5-Intro to ES- Assaf/Tools/General Tools/mingw64/bin/../lib/gcc/x86_64-w64-mingw32/6.2.0/../../../../x86_64-w64-mingw32/lib/../lib/libmingw32.a
LOAD D:/ITI/lectures/5-Intro to ES- Assaf/Tools/General Tools/mingw64/bin/../lib/gcc/x86_64-w64-mingw32/6.2.0/libgcc.a
LOAD D:/ITI/lectures/5-Intro to ES- Assaf/Tools/General Tools/mingw64/bin/../lib/gcc/x86_64-w64-mingw32/6.2.0/libgcc_eh.a
LOAD D:/ITI/lectures/5-Intro to ES- Assaf/Tools/General Tools/mingw64/bin/../lib/gcc/x86_64-w64-mingw32/6.2.0/../../../../x86_64-w64-mingw32/lib/../lib/libmoldname.a
LOAD D:/ITI/lectures/5-Intro to ES- Assaf/Tools/General Tools/mingw64/bin/../lib/gcc/x86_64-w64-mingw32/6.2.0/../../../../x86_64-w64-mingw32/lib/../lib/libmingwex.a
LOAD D:/ITI/lectures/5-Intro to ES- Assaf/Tools/General Tools/mingw64/bin/../lib/gcc/x86_64-w64-mingw32/6.2.0/../../../../x86_64-w64-mingw32/lib/../lib/libmsvcrt.a
LOAD D:/ITI/lectures/5-Intro to ES- Assaf/Tools/General Tools/mingw64/bin/../lib/gcc/x86_64-w64-mingw32/6.2.0/../../../../x86_64-w64-mingw32/lib/../lib/libpthread.dll.a
LOAD D:/ITI/lectures/5-Intro to ES- Assaf/Tools/General Tools/mingw64/bin/../lib/gcc/x86_64-w64-mingw32/6.2.0/../../../../x86_64-w64-mingw32/lib/../lib/libadvapi32.a
LOAD D:/ITI/lectures/5-Intro to ES- Assaf/Tools/General Tools/mingw64/bin/../lib/gcc/x86_64-w64-mingw32/6.2.0/../../../../x86_64-w64-mingw32/lib/../lib/libshell32.a
LOAD D:/ITI/lectures/5-Intro to ES- Assaf/Tools/General Tools/mingw64/bin/../lib/gcc/x86_64-w64-mingw32/6.2.0/../../../../x86_64-w64-mingw32/lib/../lib/libuser32.a
LOAD D:/ITI/lectures/5-Intro to ES- Assaf/Tools/General Tools/mingw64/bin/../lib/gcc/x86_64-w64-mingw32/6.2.0/../../../../x86_64-w64-mingw32/lib/../lib/libkernel32.a
LOAD D:/ITI/lectures/5-Intro to ES- Assaf/Tools/General Tools/mingw64/bin/../lib/gcc/x86_64-w64-mingw32/6.2.0/../../../../x86_64-w64-mingw32/lib/../lib/libiconv.a
LOAD D:/ITI/lectures/5-Intro to ES- Assaf/Tools/General Tools/mingw64/bin/../lib/gcc/x86_64-w64-mingw32/6.2.0/../../../../x86_64-w64-mingw32/lib/../lib/libmingw32.a
LOAD D:/ITI/lectures/5-Intro to ES- Assaf/Tools/General Tools/mingw64/bin/../lib/gcc/x86_64-w64-mingw32/6.2.0/libgcc.a
LOAD D:/ITI/lectures/5-Intro to ES- Assaf/Tools/General Tools/mingw64/bin/../lib/gcc/x86_64-w64-mingw32/6.2.0/libgcc_eh.a
LOAD D:/ITI/lectures/5-Intro to ES- Assaf/Tools/General Tools/mingw64/bin/../lib/gcc/x86_64-w64-mingw32/6.2.0/../../../../x86_64-w64-mingw32/lib/../lib/libmoldname.a
LOAD D:/ITI/lectures/5-Intro to ES- Assaf/Tools/General Tools/mingw64/bin/../lib/gcc/x86_64-w64-mingw32/6.2.0/../../../../x86_64-w64-mingw32/lib/../lib/libmingwex.a
LOAD D:/ITI/lectures/5-Intro to ES- Assaf/Tools/General Tools/mingw64/bin/../lib/gcc/x86_64-w64-mingw32/6.2.0/../../../../x86_64-w64-mingw32/lib/../lib/libmsvcrt.a
LOAD D:/ITI/lectures/5-Intro to ES- Assaf/Tools/General Tools/mingw64/bin/../lib/gcc/x86_64-w64-mingw32/6.2.0/crtend.o
                0x0000000000000430                . = SIZEOF_HEADERS
                0x0000000000001000                . = ALIGN (__section_alignment__)

.text           0x0000000000401000    0x1b800
 *(.init)
 *(.text)
 .text          0x0000000000401000      0x530 D:/ITI/lectures/5-Intro to ES- Assaf/Tools/General Tools/mingw64/bin/../lib/gcc/x86_64-w64-mingw32/6.2.0/../../../../x86_64-w64-mingw32/lib/../lib/crt2.o
                0x00000000004014d0                WinMainCRTStartup
                0x0000000000401500                mainCRTStartup
 .text          0x0000000000401530       0x80 D:/ITI/lectures/5-Intro to ES- Assaf/Tools/General Tools/mingw64/bin/../lib/gcc/x86_64-w64-mingw32/6.2.0/crtbegin.o
                0x0000000000401530                .weak._Jv_RegisterClasses.__gcc_register_frame
                0x0000000000401540                __gcc_register_frame
                0x00000000004015a0                __gcc_deregister_frame
 .text          0x00000000004015b0      0x3f0 DemosModifiedForLowTickRate\recmutex.o
                0x00000000004015b0                vStartRecursiveMutexTasks
                0x00000000004018f4                xAreRecursiveMutexTasksStillRunning
 .text          0x00000000004019a0        0x0 FreeRTOS_Source\croutine.o
 .text          0x00000000004019a0      0x830 FreeRTOS_Source\event_groups.o
                0x00000000004019a0                xEventGroupCreateStatic
                0x0000000000401a22                xEventGroupCreate
                0x0000000000401a6b                xEventGroupSync
                0x0000000000401bfd                xEventGroupWaitBits
                0x0000000000401dd5                xEventGroupClearBits
                0x0000000000401e50                xEventGroupClearBitsFromISR
                0x0000000000401e87                xEventGroupGetBitsFromISR
                0x0000000000401eb4                xEventGroupSetBits
                0x000000000040201d                vEventGroupDelete
                0x00000000004020ad                vEventGroupSetBitsCallback
                0x00000000004020d1                vEventGroupClearBitsCallback
                0x0000000000402142                xEventGroupSetBitsFromISR
                0x000000000040217e                uxEventGroupGetNumber
                0x00000000004021b5                vEventGroupSetNumber
 .text          0x00000000004021d0      0x220 FreeRTOS_Source\list.o
                0x00000000004021d0                vListInitialise
                0x0000000000402220                vListInitialiseItem
                0x0000000000402237                vListInsertEnd
                0x00000000004022ad                vListInsert
                0x000000000040235d                uxListRemove
 .text          0x00000000004023f0      0xb90 FreeRTOS_Source\portable\MSVC-MingW\port.o
                0x0000000000402530                pxPortInitialiseStack
                0x000000000040263f                xPortStartScheduler
                0x0000000000402b18                vPortDeleteThread
                0x0000000000402bd0                vPortCloseRunningThread
                0x0000000000402c72                vPortEndScheduler
                0x0000000000402c85                vPortGenerateSimulatedInterrupt
                0x0000000000402d7a                vPortSetInterruptHandler
                0x0000000000402e03                vPortEnterCritical
                0x0000000000402e44                vPortExitCritical
 .text          0x0000000000402f80      0x730 FreeRTOS_Source\portable\MemMang\heap_5.o
                0x0000000000402f80                pvPortMalloc
                0x000000000040316f                vPortFree
                0x000000000040326f                xPortGetFreeHeapSize
                0x000000000040327c                xPortGetMinimumEverFreeHeapSize
                0x000000000040339b                vPortDefineHeapRegions
                0x000000000040359d                vPortGetHeapStats
 .text          0x00000000004036b0     0x1ed0 FreeRTOS_Source\queue.o
                0x00000000004036b0                xQueueGenericReset
                0x00000000004037bc                xQueueGenericCreateStatic
                0x00000000004038d2                xQueueGenericCreate
                0x0000000000403a43                xQueueCreateMutex
                0x0000000000403a8c                xQueueCreateMutexStatic
                0x0000000000403ae7                xQueueGetMutexHolder
                0x0000000000403b31                xQueueGetMutexHolderFromISR
                0x0000000000403b81                xQueueGiveMutexRecursive
                0x0000000000403c18                xQueueTakeMutexRecursive
                0x0000000000403cac                xQueueCreateCountingSemaphoreStatic
                0x0000000000403d2f                xQueueCreateCountingSemaphore
                0x0000000000403d9f                xQueueGenericSend
                0x0000000000404036                xQueueGenericSendFromISR
                0x00000000004041c2                xQueueGiveFromISR
                0x0000000000404315                xQueueReceive
                0x000000000040452d                xQueueSemaphoreTake
                0x00000000004047b2                xQueuePeek
                0x00000000004049d5                xQueueReceiveFromISR
                0x0000000000404adc                xQueuePeekFromISR
                0x0000000000404bae                uxQueueMessagesWaiting
                0x0000000000404bef                uxQueueSpacesAvailable
                0x0000000000404c43                uxQueueMessagesWaitingFromISR
                0x0000000000404c82                vQueueDelete
                0x0000000000404cd9                uxQueueGetQueueNumber
                0x0000000000404ced                vQueueSetQueueNumber
                0x0000000000404d08                ucQueueGetQueueType
                0x0000000000405066                xQueueIsQueueEmptyFromISR
                0x00000000004050f7                xQueueIsQueueFullFromISR
                0x000000000040514e                vQueueAddToRegistry
                0x00000000004051c7                pcQueueGetName
                0x0000000000405230                vQueueUnregisterQueue
                0x00000000004052aa                vQueueWaitForMessageRestricted
                0x000000000040532d                xQueueCreateSet
                0x0000000000405359                xQueueAddToSet
                0x00000000004053bf                xQueueRemoveFromSet
                0x000000000040542e                xQueueSelectFromSet
                0x0000000000405465                xQueueSelectFromSetFromISR
 .text          0x0000000000405580     0x1200 FreeRTOS_Source\stream_buffer.o
                0x0000000000405580                xStreamBufferGenericCreate
                0x0000000000405652                xStreamBufferGenericCreateStatic
                0x0000000000405778                vStreamBufferDelete
                0x00000000004057e2                xStreamBufferReset
                0x0000000000405890                xStreamBufferSetTriggerLevel
                0x0000000000405902                xStreamBufferSpacesAvailable
                0x0000000000405979                xStreamBufferBytesAvailable
                0x00000000004059bf                xStreamBufferSend
                0x0000000000405bb9                xStreamBufferSendFromISR
                0x0000000000405d8d                xStreamBufferReceive
                0x0000000000405f46                xStreamBufferNextMessageLengthBytes
                0x000000000040600c                xStreamBufferReceiveFromISR
                0x00000000004061cd                xStreamBufferIsEmpty
                0x000000000040622b                xStreamBufferIsFull
                0x00000000004062a3                xStreamBufferSendCompletedFromISR
                0x0000000000406336                xStreamBufferReceiveCompletedFromISR
                0x0000000000406735                uxStreamBufferGetStreamBufferNumber
                0x0000000000406746                vStreamBufferSetStreamBufferNumber
                0x000000000040675e                ucStreamBufferGetStreamBufferType
 .text          0x0000000000406780     0x33c0 FreeRTOS_Source\tasks.o
                0x0000000000406780                xTaskCreateStatic
                0x000000000040687d                xTaskCreate
                0x0000000000406c3b                vTaskDelete
                0x0000000000406da0                vTaskDelayUntil
                0x0000000000406e9d                vTaskDelay
                0x0000000000406f01                eTaskGetState
                0x0000000000407000                uxTaskPriorityGet
                0x0000000000407041                uxTaskPriorityGetFromISR
                0x000000000040707f                vTaskPrioritySet
                0x0000000000407244                vTaskSuspend
                0x0000000000407418                vTaskResume
                0x00000000004074ff                xTaskResumeFromISR
                0x00000000004075f4                vTaskStartScheduler
                0x00000000004076e0                vTaskEndScheduler
                0x0000000000407703                vTaskSuspendAll
                0x0000000000407727                xTaskResumeAll
                0x00000000004078a4                xTaskGetTickCount
                0x00000000004078be                xTaskGetTickCountFromISR
                0x00000000004078df                uxTaskGetNumberOfTasks
                0x00000000004078eb                pcTaskGetName
                0x0000000000407a89                xTaskGetHandle
                0x0000000000407b81                uxTaskGetSystemState
                0x0000000000407cff                xTaskGetIdleTaskHandle
                0x0000000000407d31                xTaskCatchUpTicks
                0x0000000000407d85                xTaskAbortDelay
                0x0000000000407e96                xTaskIncrementTick
                0x0000000000408095                vTaskSetApplicationTaskTag
                0x00000000004080e1                xTaskGetApplicationTaskTag
                0x0000000000408128                xTaskGetApplicationTaskTagFromISR
                0x000000000040816c                xTaskCallApplicationTaskHook
                0x00000000004081d1                vTaskSwitchContext
                0x0000000000408300                vTaskPlaceOnEventList
                0x0000000000408354                vTaskPlaceOnUnorderedEventList
                0x00000000004083da                vTaskPlaceOnEventListRestricted
                0x000000000040843d                xTaskRemoveFromEventList
                0x000000000040853b                vTaskRemoveFromUnorderedEventList
                0x0000000000408627                vTaskSetTimeOutState
                0x0000000000408675                vTaskInternalSetTimeOutState
                0x0000000000408699                xTaskCheckForTimeOut
                0x00000000004087a7                vTaskMissedYield
                0x00000000004087b8                uxTaskGetTaskNumber
                0x00000000004087ef                vTaskSetTaskNumber
                0x0000000000408956                vTaskGetInfo
                0x0000000000408be4                uxTaskGetStackHighWaterMark2
                0x0000000000408c2c                uxTaskGetStackHighWaterMark
                0x0000000000408d3c                xTaskGetCurrentTaskHandle
                0x0000000000408d59                xTaskGetSchedulerState
                0x0000000000408d97                xTaskPriorityInherit
                0x0000000000408f04                xTaskPriorityDisinherit
                0x0000000000409088                vTaskPriorityDisinheritAfterTimeout
                0x0000000000409219                uxTaskResetEventItemValue
                0x0000000000409254                pvTaskIncrementMutexHeldCount
                0x0000000000409283                ulTaskNotifyTake
                0x000000000040933c                xTaskNotifyWait
                0x000000000040942c                xTaskGenericNotify
                0x0000000000409608                xTaskGenericNotifyFromISR
                0x0000000000409815                vTaskNotifyGiveFromISR
                0x000000000040995d                xTaskNotifyStateClear
                0x00000000004099be                ulTaskNotifyValueClear
                0x0000000000409a23                ulTaskGetIdleRunTimeCounter
 .text          0x0000000000409b40      0xe20 FreeRTOS_Source\timers.o
                0x0000000000409b40                xTimerCreateTimerTask
                0x0000000000409bfa                xTimerCreate
                0x0000000000409c65                xTimerCreateStatic
                0x0000000000409da1                xTimerGenericCommand
                0x0000000000409e7f                xTimerGetTimerDaemonTaskHandle
                0x0000000000409eb1                xTimerGetPeriod
                0x0000000000409eea                vTimerSetReloadMode
                0x0000000000409f5a                uxTimerGetReloadMode
                0x0000000000409fbb                xTimerGetExpiryTime
                0x0000000000409ffa                pcTimerGetName
                0x000000000040a756                xTimerIsTimerActive
                0x000000000040a7b7                pvTimerGetTimerID
                0x000000000040a803                vTimerSetTimerID
                0x000000000040a850                xTimerPendFunctionCallFromISR
                0x000000000040a8b1                xTimerPendFunctionCall
                0x000000000040a92e                uxTimerGetTimerNumber
                0x000000000040a93f                vTimerSetTimerNumber
 .text          0x000000000040a960      0x200 MyTask.o
                0x000000000040a960                Task_5ms
                0x000000000040aa16                Task_10ms
                0x000000000040aae6                main_task
 .text          0x000000000040ab60       0xd0 Run-time-stats-utils.o
                0x000000000040ab60                vConfigureTimerForRunTimeStats
                0x000000000040abd7                ulGetRunTimeCounterValue
 .text          0x000000000040ac30      0xac0 Standard_Demo_Tasks\AbortDelay.o
                0x000000000040ac30                vCreateAbortDelayTasks
                0x000000000040b674                xAreAbortDelayTestTasksStillRunning
 .text          0x000000000040b6f0      0x4a0 Standard_Demo_Tasks\BlockQ.o
                0x000000000040b6f0                vStartBlockingQueueTasks
                0x000000000040baa3                xAreBlockingQueuesStillRunning
 .text          0x000000000040bb90      0xf80 Standard_Demo_Tasks\EventGroupsDemo.o
                0x000000000040bb90                vStartEventGroupTasks
                0x000000000040c946                vPeriodicEventGroupsProcessing
                0x000000000040ca87                xAreEventGroupTasksStillRunning
 .text          0x000000000040cb10      0xe40 Standard_Demo_Tasks\GenQTest.o
                0x000000000040cb10                vStartGenericQueueTasks
                0x000000000040d8e6                xAreGenericQueueTasksStillRunning
 .text          0x000000000040d950      0x820 Standard_Demo_Tasks\IntSemTest.o
                0x000000000040d950                vStartInterruptSemaphoreTasks
                0x000000000040e03e                vInterruptSemaphorePeriodicTest
                0x000000000040e0fb                xAreInterruptSemaphoreTasksStillRunning
 .text          0x000000000040e170      0x3e0 Standard_Demo_Tasks\MessageBufferAMP.o
                0x000000000040e170                vStartMessageBufferAMPTasks
                0x000000000040e418                vGenerateCoreBInterrupt
                0x000000000040e4b2                xAreMessageBufferAMPTasksStillRunning
 .text          0x000000000040e550     0x13a0 Standard_Demo_Tasks\MessageBufferDemo.o
                0x000000000040e550                vStartMessageBufferTasks
                0x000000000040f7ad                xAreMessageBufferTasksStillRunning
 .text          0x000000000040f8f0      0x230 Standard_Demo_Tasks\PollQ.o
                0x000000000040f8f0                vStartPolledQueueTasks
                0x000000000040facc                xArePollingQueuesStillRunning
 .text          0x000000000040fb20      0x560 Standard_Demo_Tasks\QPeek.o
                0x000000000040fb20                vStartQueuePeekTasks
                0x0000000000410045                xAreQueuePeekTasksStillRunning
 .text          0x0000000000410080      0x330 Standard_Demo_Tasks\QueueOverwrite.o
                0x0000000000410080                vStartQueueOverwriteTask
                0x000000000041023e                xIsQueueOverwriteTaskStillRunning
                0x0000000000410287                vQueueOverwritePeriodicISRDemo
 .text          0x00000000004103b0     0x1310 Standard_Demo_Tasks\QueueSet.o
                0x00000000004103b0                vStartQueueSetTasks
                0x000000000041044d                xAreQueueSetTasksStillRunning
                0x00000000004107c0                vQueueSetAccessQueueSetFromISR
 .text          0x00000000004116c0      0x1c0 Standard_Demo_Tasks\QueueSetPolling.o
                0x00000000004116c0                vStartQueueSetPollingTask
                0x00000000004117e5                vQueueSetPollingInterruptAccess
                0x000000000041184e                xAreQueueSetPollTasksStillRunning
 .text          0x0000000000411880      0xeb0 Standard_Demo_Tasks\StaticAllocation.o
                0x0000000000411880                vStartStaticallyAllocatedTasks
                0x00000000004126cf                xAreStaticAllocationTasksStillRunning
 .text          0x0000000000412730     0x19e0 Standard_Demo_Tasks\StreamBufferDemo.o
                0x0000000000412730                vStartStreamBufferTasks
                0x0000000000413d5c                vPeriodicStreamBufferProcessing
                0x0000000000413fa2                xAreStreamBufferTasksStillRunning
 .text          0x0000000000414110      0x290 Standard_Demo_Tasks\StreamBufferInterrupt.o
                0x0000000000414110                vStartStreamBufferInterruptDemo
                0x00000000004142af                vBasicStreamBufferSendFromISR
                0x000000000041435f                xIsInterruptStreamBufferDemoStillRunning
 .text          0x00000000004143a0     0x1040 Standard_Demo_Tasks\TaskNotify.o
                0x00000000004143a0                vStartTaskNotifyTask
                0x00000000004151c7                xNotifyTaskFromISR
                0x0000000000415317                xAreTaskNotificationTasksStillRunning
 .text          0x00000000004153e0     0x1900 Standard_Demo_Tasks\TimerDemo.o
                0x00000000004153e0                vStartTimerDemoTask
                0x000000000041556d                xAreTimerDemoTasksStillRunning
                0x00000000004162c3                vTimerPeriodicISRTests
 .text          0x0000000000416ce0      0x770 Standard_Demo_Tasks\blocktim.o
                0x0000000000416ce0                vCreateBlockTimeTasks
                0x00000000004173d7                xAreBlockTimeTestTasksStillRunning
 .text          0x0000000000417450      0x3c0 Standard_Demo_Tasks\countsem.o
                0x0000000000417450                vStartCountingSemaphoreTasks
                0x0000000000417798                xAreCountingSemaphoreTasksStillRunning
 .text          0x0000000000417810      0x210 Standard_Demo_Tasks\death.o
                0x0000000000417810                vCreateSuicidalTasks
                0x0000000000417995                xIsCreateTaskStillRunning
 .text          0x0000000000417a20      0x540 Standard_Demo_Tasks\dynamic.o
                0x0000000000417a20                vStartDynamicPriorityTasks
                0x0000000000417ece                xAreDynamicPriorityTasksStillRunning
 .text          0x0000000000417f60      0x610 Standard_Demo_Tasks\flop.o
                0x0000000000417f60                vStartMathTasks
                0x0000000000418500                xAreMathsTaskStillRunning
 .text          0x0000000000418570      0x170 Standard_Demo_Tasks\integer.o
                0x0000000000418570                vStartIntegerMathTasks
                0x0000000000418668                xAreIntegerMathsTaskStillRunning
 .text          0x00000000004186e0      0x420 Standard_Demo_Tasks\semtest.o
                0x00000000004186e0                vStartSemaphoreTasks
                0x0000000000418a78                xAreSemaphoreTasksStillRunning
 .text          0x0000000000418b00      0xb50 code_coverage_additions.o
                0x00000000004195f8                xRunCodeCoverageTestAdditions
 .text          0x0000000000419650      0x620 main.o
                0x0000000000419650                main
                0x000000000041968a                vApplicationMallocFailedHook
                0x00000000004196aa                vApplicationIdleHook
                0x00000000004196b1                vApplicationTickHook
                0x00000000004196b8                vApplicationDaemonTaskStartupHook
                0x00000000004196bf                vAssertCalled
                0x0000000000419bf5                vApplicationGetIdleTaskMemory
                0x0000000000419c2e                vApplicationGetTimerTaskMemory
 .text          0x0000000000419c70      0x210 main_blinky.o
                0x0000000000419c70                main_blinky
 .text          0x0000000000419e80     0x1100 main_full.o
                0x0000000000419e80                main_full
                0x000000000041a437                vFullDemoIdleFunction
                0x000000000041a579                vFullDemoTickHookFunction
 .text          0x000000000041af80        0x8 D:/ITI/lectures/5-Intro to ES- Assaf/Tools/General Tools/mingw64/bin/../lib/gcc/x86_64-w64-mingw32/6.2.0/../../../../x86_64-w64-mingw32/lib/../lib/libwinmm.a(dmces00151.o)
                0x000000000041af80                timeGetDevCaps
 .text          0x000000000041af88        0x8 D:/ITI/lectures/5-Intro to ES- Assaf/Tools/General Tools/mingw64/bin/../lib/gcc/x86_64-w64-mingw32/6.2.0/../../../../x86_64-w64-mingw32/lib/../lib/libwinmm.a(dmces00150.o)
                0x000000000041af88                timeEndPeriod
 .text          0x000000000041af90        0x8 D:/ITI/lectures/5-Intro to ES- Assaf/Tools/General Tools/mingw64/bin/../lib/gcc/x86_64-w64-mingw32/6.2.0/../../../../x86_64-w64-mingw32/lib/../lib/libwinmm.a(dmces00149.o)
                0x000000000041af90                timeBeginPeriod
 *fill*         0x000000000041af98        0x8 
 .text          0x000000000041afa0        0x0 D:/ITI/lectures/5-Intro to ES- Assaf/Tools/General Tools/mingw64/bin/../lib/gcc/x86_64-w64-mingw32/6.2.0/../../../../x86_64-w64-mingw32/lib/../lib/libwinmm.a(dmceh.o)
 .text          0x000000000041afa0        0x0 D:/ITI/lectures/5-Intro to ES- Assaf/Tools/General Tools/mingw64/bin/../lib/gcc/x86_64-w64-mingw32/6.2.0/../../../../x86_64-w64-mingw32/lib/../lib/libwinmm.a(dmcet.o)
 .text          0x000000000041afa0       0xd0 D:/ITI/lectures/5-Intro to ES- Assaf/Tools/General Tools/mingw64/bin/../lib/gcc/x86_64-w64-mingw32/6.2.0/../../../../x86_64-w64-mingw32/lib/../lib/libmingw32.a(lib64_libmingw32_a-atonexit.o)
                0x000000000041afa0                mingw_onexit
                0x000000000041b050                atexit
 .text          0x000000000041b070       0xc0 D:/ITI/lectures/5-Intro to ES- Assaf/Tools/General Tools/mingw64/bin/../lib/gcc/x86_64-w64-mingw32/6.2.0/../../../../x86_64-w64-mingw32/lib/../lib/libmingw32.a(lib64_libmingw32_a-gccmain.o)
                0x000000000041b070                __do_global_dtors
                0x000000000041b0b0                __do_global_ctors
                0x000000000041b110                __main
 .text          0x000000000041b130        0x0 D:/ITI/lectures/5-Intro to ES- Assaf/Tools/General Tools/mingw64/bin/../lib/gcc/x86_64-w64-mingw32/6.2.0/../../../../x86_64-w64-mingw32/lib/../lib/libmingw32.a(lib64_libmingw32_a-natstart.o)
 .text          0x000000000041b130        0x0 D:/ITI/lectures/5-Intro to ES- Assaf/Tools/General Tools/mingw64/bin/../lib/gcc/x86_64-w64-mingw32/6.2.0/../../../../x86_64-w64-mingw32/lib/../lib/libmingw32.a(lib64_libmingw32_a-wildcard.o)
 .text          0x000000000041b130       0x10 D:/ITI/lectures/5-Intro to ES- Assaf/Tools/General Tools/mingw64/bin/../lib/gcc/x86_64-w64-mingw32/6.2.0/../../../../x86_64-w64-mingw32/lib/../lib/libmingw32.a(lib64_libmingw32_a-charmax.o)
 .text          0x000000000041b140       0x10 D:/ITI/lectures/5-Intro to ES- Assaf/Tools/General Tools/mingw64/bin/../lib/gcc/x86_64-w64-mingw32/6.2.0/../../../../x86_64-w64-mingw32/lib/../lib/libmingw32.a(lib64_libmingw32_a-dllargv.o)
                0x000000000041b140                _setargv
 .text          0x000000000041b150      0x1e0 D:/ITI/lectures/5-Intro to ES- Assaf/Tools/General Tools/mingw64/bin/../lib/gcc/x86_64-w64-mingw32/6.2.0/../../../../x86_64-w64-mingw32/lib/../lib/libmingw32.a(lib64_libmingw32_a-gs_support.o)
                0x000000000041b150                __security_init_cookie
                0x000000000041b230                __report_gsfailure
 .text          0x000000000041b330        0x0 D:/ITI/lectures/5-Intro to ES- Assaf/Tools/General Tools/mingw64/bin/../lib/gcc/x86_64-w64-mingw32/6.2.0/../../../../x86_64-w64-mingw32/lib/../lib/libmingw32.a(lib64_libmingw32_a-_newmode.o)
 .text          0x000000000041b330       0xb0 D:/ITI/lectures/5-Intro to ES- Assaf/Tools/General Tools/mingw64/bin/../lib/gcc/x86_64-w64-mingw32/6.2.0/../../../../x86_64-w64-mingw32/lib/../lib/libmingw32.a(lib64_libmingw32_a-tlssup.o)
                0x000000000041b360                __dyn_tls_init
                0x000000000041b3d0                __tlregdtor
 .text          0x000000000041b3e0        0x0 D:/ITI/lectures/5-Intro to ES- Assaf/Tools/General Tools/mingw64/bin/../lib/gcc/x86_64-w64-mingw32/6.2.0/../../../../x86_64-w64-mingw32/lib/../lib/libmingw32.a(lib64_libmingw32_a-cinitexe.o)
 .text          0x000000000041b3e0      0x160 D:/ITI/lectures/5-Intro to ES- Assaf/Tools/General Tools/mingw64/bin/../lib/gcc/x86_64-w64-mingw32/6.2.0/../../../../x86_64-w64-mingw32/lib/../lib/libmingw32.a(lib64_libmingw32_a-merr.o)
                0x000000000041b3e0                __mingw_raise_matherr
                0x000000000041b430                __mingw_setusermatherr
                0x000000000041b440                _matherr
 .text          0x000000000041b540       0x10 D:/ITI/lectures/5-Intro to ES- Assaf/Tools/General Tools/mingw64/bin/../lib/gcc/x86_64-w64-mingw32/6.2.0/../../../../x86_64-w64-mingw32/lib/../lib/libmingw32.a(lib64_libmingw32_a-CRT_fp10.o)
                0x000000000041b540                fpreset
                0x000000000041b540                _fpreset
 .text          0x000000000041b550       0x20 D:/ITI/lectures/5-Intro to ES- Assaf/Tools/General Tools/mingw64/bin/../lib/gcc/x86_64-w64-mingw32/6.2.0/../../../../x86_64-w64-mingw32/lib/../lib/libmingw32.a(lib64_libmingw32_a-mingw_helpers.o)
                0x000000000041b550                _decode_pointer
                0x000000000041b560                _encode_pointer
 .text          0x000000000041b570      0x4e0 D:/ITI/lectures/5-Intro to ES- Assaf/Tools/General Tools/mingw64/bin/../lib/gcc/x86_64-w64-mingw32/6.2.0/../../../../x86_64-w64-mingw32/lib/../lib/libmingw32.a(lib64_libmingw32_a-pseudo-reloc.o)
                0x000000000041b750                _pei386_runtime_relocator
 .text          0x000000000041ba50        0x0 D:/ITI/lectures/5-Intro to ES- Assaf/Tools/General Tools/mingw64/bin/../lib/gcc/x86_64-w64-mingw32/6.2.0/../../../../x86_64-w64-mingw32/lib/../lib/libmingw32.a(lib64_libmingw32_a-xtxtmode.o)
 .text          0x000000000041ba50      0x460 D:/ITI/lectures/5-Intro to ES- Assaf/Tools/General Tools/mingw64/bin/../lib/gcc/x86_64-w64-mingw32/6.2.0/../../../../x86_64-w64-mingw32/lib/../lib/libmingw32.a(lib64_libmingw32_a-crt_handler.o)
                0x000000000041ba50                __mingw_SEH_error_handler
                0x000000000041bc00                __mingw_init_ehandler
                0x000000000041bcf0                _gnu_exception_handler
 .text          0x000000000041beb0      0x270 D:/ITI/lectures/5-Intro to ES- Assaf/Tools/General Tools/mingw64/bin/../lib/gcc/x86_64-w64-mingw32/6.2.0/../../../../x86_64-w64-mingw32/lib/../lib/libmingw32.a(lib64_libmingw32_a-tlsthrd.o)
                0x000000000041bf20                ___w64_mingwthr_add_key_dtor
                0x000000000041bfa0                ___w64_mingwthr_remove_key_dtor
                0x000000000041c040                __mingw_TLScallback
 .text          0x000000000041c120        0x0 D:/ITI/lectures/5-Intro to ES- Assaf/Tools/General Tools/mingw64/bin/../lib/gcc/x86_64-w64-mingw32/6.2.0/../../../../x86_64-w64-mingw32/lib/../lib/libmingw32.a(lib64_libmingw32_a-tlsmcrt.o)
 .text          0x000000000041c120        0x0 D:/ITI/lectures/5-Intro to ES- Assaf/Tools/General Tools/mingw64/bin/../lib/gcc/x86_64-w64-mingw32/6.2.0/../../../../x86_64-w64-mingw32/lib/../lib/libmingw32.a(lib64_libmingw32_a-pseudo-reloc-list.o)
 .text          0x000000000041c120      0x3a0 D:/ITI/lectures/5-Intro to ES- Assaf/Tools/General Tools/mingw64/bin/../lib/gcc/x86_64-w64-mingw32/6.2.0/../../../../x86_64-w64-mingw32/lib/../lib/libmingw32.a(lib64_libmingw32_a-pesect.o)
                0x000000000041c140                _ValidateImageBase
                0x000000000041c160                _FindPESection
                0x000000000041c1b0                _FindPESectionByName
                0x000000000041c250                __mingw_GetSectionForAddress
                0x000000000041c2a0                __mingw_GetSectionCount
                0x000000000041c2e0                _FindPESectionExec
                0x000000000041c370                _GetPEImageBase
                0x000000000041c3b0                _IsNonwritableInCurrentImage
                0x000000000041c410                __mingw_enum_import_library_names
 .text          0x000000000041c4c0       0x40 D:/ITI/lectures/5-Intro to ES- Assaf/Tools/General Tools/mingw64/bin/../lib/gcc/x86_64-w64-mingw32/6.2.0/libgcc.a(_chkstk_ms.o)
                0x000000000041c4c0                ___chkstk_ms
 .text          0x000000000041c500        0x0 D:/ITI/lectures/5-Intro to ES- Assaf/Tools/General Tools/mingw64/bin/../lib/gcc/x86_64-w64-mingw32/6.2.0/libgcc.a(_ctors.o)
 .text          0x000000000041c500        0x0 D:/ITI/lectures/5-Intro to ES- Assaf/Tools/General Tools/mingw64/bin/../lib/gcc/x86_64-w64-mingw32/6.2.0/../../../../x86_64-w64-mingw32/lib/../lib/libmingwex.a(lib64_libmingwex_a-mingw_matherr.o)
 .text          0x000000000041c500        0x8 D:/ITI/lectures/5-Intro to ES- Assaf/Tools/General Tools/mingw64/bin/../lib/gcc/x86_64-w64-mingw32/6.2.0/../../../../x86_64-w64-mingw32/lib/../lib/libmsvcrt.a(dekes01240.o)
                0x000000000041c500                vfprintf
 .text          0x000000000041c508        0x8 D:/ITI/lectures/5-Intro to ES- Assaf/Tools/General Tools/mingw64/bin/../lib/gcc/x86_64-w64-mingw32/6.2.0/../../../../x86_64-w64-mingw32/lib/../lib/libmsvcrt.a(dekes01208.o)
                0x000000000041c508                strncmp
 .text          0x000000000041c510        0x8 D:/ITI/lectures/5-Intro to ES- Assaf/Tools/General Tools/mingw64/bin/../lib/gcc/x86_64-w64-mingw32/6.2.0/../../../../x86_64-w64-mingw32/lib/../lib/libmsvcrt.a(dekes01205.o)
                0x000000000041c510                strlen
 .text          0x000000000041c518        0x8 D:/ITI/lectures/5-Intro to ES- Assaf/Tools/General Tools/mingw64/bin/../lib/gcc/x86_64-w64-mingw32/6.2.0/../../../../x86_64-w64-mingw32/lib/../lib/libmsvcrt.a(dekes01198.o)
                0x000000000041c518                strcmp
 .text          0x000000000041c520        0x8 D:/ITI/lectures/5-Intro to ES- Assaf/Tools/General Tools/mingw64/bin/../lib/gcc/x86_64-w64-mingw32/6.2.0/../../../../x86_64-w64-mingw32/lib/../lib/libmsvcrt.a(dekes01189.o)
                0x000000000041c520                sprintf
 .text          0x000000000041c528        0x8 D:/ITI/lectures/5-Intro to ES- Assaf/Tools/General Tools/mingw64/bin/../lib/gcc/x86_64-w64-mingw32/6.2.0/../../../../x86_64-w64-mingw32/lib/../lib/libmsvcrt.a(dekes01184.o)
                0x000000000041c528                signal
 .text          0x000000000041c530        0x8 D:/ITI/lectures/5-Intro to ES- Assaf/Tools/General Tools/mingw64/bin/../lib/gcc/x86_64-w64-mingw32/6.2.0/../../../../x86_64-w64-mingw32/lib/../lib/libmsvcrt.a(dekes01173.o)
                0x000000000041c530                rand
 .text          0x000000000041c538        0x8 D:/ITI/lectures/5-Intro to ES- Assaf/Tools/General Tools/mingw64/bin/../lib/gcc/x86_64-w64-mingw32/6.2.0/../../../../x86_64-w64-mingw32/lib/../lib/libmsvcrt.a(dekes01167.o)
                0x000000000041c538                puts
 .text          0x000000000041c540        0x8 D:/ITI/lectures/5-Intro to ES- Assaf/Tools/General Tools/mingw64/bin/../lib/gcc/x86_64-w64-mingw32/6.2.0/../../../../x86_64-w64-mingw32/lib/../lib/libmsvcrt.a(dekes01166.o)
                0x000000000041c540                putchar
 .text          0x000000000041c548        0x8 D:/ITI/lectures/5-Intro to ES- Assaf/Tools/General Tools/mingw64/bin/../lib/gcc/x86_64-w64-mingw32/6.2.0/../../../../x86_64-w64-mingw32/lib/../lib/libmsvcrt.a(dekes01163.o)
                0x000000000041c548                printf
 .text          0x000000000041c550        0x8 D:/ITI/lectures/5-Intro to ES- Assaf/Tools/General Tools/mingw64/bin/../lib/gcc/x86_64-w64-mingw32/6.2.0/../../../../x86_64-w64-mingw32/lib/../lib/libmsvcrt.a(dekes01156.o)
                0x000000000041c550                memset
 .text          0x000000000041c558        0x8 D:/ITI/lectures/5-Intro to ES- Assaf/Tools/General Tools/mingw64/bin/../lib/gcc/x86_64-w64-mingw32/6.2.0/../../../../x86_64-w64-mingw32/lib/../lib/libmsvcrt.a(dekes01154.o)
                0x000000000041c558                memcpy
 .text          0x000000000041c560        0x8 D:/ITI/lectures/5-Intro to ES- Assaf/Tools/General Tools/mingw64/bin/../lib/gcc/x86_64-w64-mingw32/6.2.0/../../../../x86_64-w64-mingw32/lib/../lib/libmsvcrt.a(dekes01153.o)
                0x000000000041c560                memcmp
 .text          0x000000000041c568        0x8 D:/ITI/lectures/5-Intro to ES- Assaf/Tools/General Tools/mingw64/bin/../lib/gcc/x86_64-w64-mingw32/6.2.0/../../../../x86_64-w64-mingw32/lib/../lib/libmsvcrt.a(dekes01146.o)
                0x000000000041c568                malloc
 .text          0x000000000041c570        0x8 D:/ITI/lectures/5-Intro to ES- Assaf/Tools/General Tools/mingw64/bin/../lib/gcc/x86_64-w64-mingw32/6.2.0/../../../../x86_64-w64-mingw32/lib/../lib/libmsvcrt.a(dekes01099.o)
                0x000000000041c570                fwrite
 .text          0x000000000041c578        0x8 D:/ITI/lectures/5-Intro to ES- Assaf/Tools/General Tools/mingw64/bin/../lib/gcc/x86_64-w64-mingw32/6.2.0/../../../../x86_64-w64-mingw32/lib/../lib/libmsvcrt.a(dekes01087.o)
                0x000000000041c578                free
 .text          0x000000000041c580        0x8 D:/ITI/lectures/5-Intro to ES- Assaf/Tools/General Tools/mingw64/bin/../lib/gcc/x86_64-w64-mingw32/6.2.0/../../../../x86_64-w64-mingw32/lib/../lib/libmsvcrt.a(dekes01080.o)
                0x000000000041c580                fprintf
 .text          0x000000000041c588        0x8 D:/ITI/lectures/5-Intro to ES- Assaf/Tools/General Tools/mingw64/bin/../lib/gcc/x86_64-w64-mingw32/6.2.0/../../../../x86_64-w64-mingw32/lib/../lib/libmsvcrt.a(dekes01078.o)
                0x000000000041c588                fopen
 .text          0x000000000041c590        0x8 D:/ITI/lectures/5-Intro to ES- Assaf/Tools/General Tools/mingw64/bin/../lib/gcc/x86_64-w64-mingw32/6.2.0/../../../../x86_64-w64-mingw32/lib/../lib/libmsvcrt.a(dekes01068.o)
                0x000000000041c590                fflush
 .text          0x000000000041c598        0x8 D:/ITI/lectures/5-Intro to ES- Assaf/Tools/General Tools/mingw64/bin/../lib/gcc/x86_64-w64-mingw32/6.2.0/../../../../x86_64-w64-mingw32/lib/../lib/libmsvcrt.a(dekes01065.o)
                0x000000000041c598                fclose
 .text          0x000000000041c5a0        0x8 D:/ITI/lectures/5-Intro to ES- Assaf/Tools/General Tools/mingw64/bin/../lib/gcc/x86_64-w64-mingw32/6.2.0/../../../../x86_64-w64-mingw32/lib/../lib/libmsvcrt.a(dekes01061.o)
                0x000000000041c5a0                exit
 .text          0x000000000041c5a8        0x8 D:/ITI/lectures/5-Intro to ES- Assaf/Tools/General Tools/mingw64/bin/../lib/gcc/x86_64-w64-mingw32/6.2.0/../../../../x86_64-w64-mingw32/lib/../lib/libmsvcrt.a(dekes01048.o)
                0x000000000041c5a8                calloc
 .text          0x000000000041c5b0        0x8 D:/ITI/lectures/5-Intro to ES- Assaf/Tools/General Tools/mingw64/bin/../lib/gcc/x86_64-w64-mingw32/6.2.0/../../../../x86_64-w64-mingw32/lib/../lib/libmsvcrt.a(dekes01028.o)
                0x000000000041c5b0                abort
 .text          0x000000000041c5b8        0x8 D:/ITI/lectures/5-Intro to ES- Assaf/Tools/General Tools/mingw64/bin/../lib/gcc/x86_64-w64-mingw32/6.2.0/../../../../x86_64-w64-mingw32/lib/../lib/libmsvcrt.a(dekes00820.o)
                0x000000000041c5b8                _unlock
 .text          0x000000000041c5c0        0x8 D:/ITI/lectures/5-Intro to ES- Assaf/Tools/General Tools/mingw64/bin/../lib/gcc/x86_64-w64-mingw32/6.2.0/../../../../x86_64-w64-mingw32/lib/../lib/libmsvcrt.a(dekes00611.o)
                0x000000000041c5c0                _onexit
 .text          0x000000000041c5c8        0x8 D:/ITI/lectures/5-Intro to ES- Assaf/Tools/General Tools/mingw64/bin/../lib/gcc/x86_64-w64-mingw32/6.2.0/../../../../x86_64-w64-mingw32/lib/../lib/libmsvcrt.a(dekes00438.o)
                0x000000000041c5c8                _lock
 .text          0x000000000041c5d0        0x8 D:/ITI/lectures/5-Intro to ES- Assaf/Tools/General Tools/mingw64/bin/../lib/gcc/x86_64-w64-mingw32/6.2.0/../../../../x86_64-w64-mingw32/lib/../lib/libmsvcrt.a(dekes00330.o)
                0x000000000041c5d0                _initterm
 .text          0x000000000041c5d8        0x0 D:/ITI/lectures/5-Intro to ES- Assaf/Tools/General Tools/mingw64/bin/../lib/gcc/x86_64-w64-mingw32/6.2.0/../../../../x86_64-w64-mingw32/lib/../lib/libmsvcrt.a(dekes00252.o)
 .text          0x000000000041c5d8        0x8 D:/ITI/lectures/5-Intro to ES- Assaf/Tools/General Tools/mingw64/bin/../lib/gcc/x86_64-w64-mingw32/6.2.0/../../../../x86_64-w64-mingw32/lib/../lib/libmsvcrt.a(dekes00141.o)
                0x000000000041c5d8                _cexit
 .text          0x000000000041c5e0        0x8 D:/ITI/lectures/5-Intro to ES- Assaf/Tools/General Tools/mingw64/bin/../lib/gcc/x86_64-w64-mingw32/6.2.0/../../../../x86_64-w64-mingw32/lib/../lib/libmsvcrt.a(dekes00123.o)
                0x000000000041c5e0                _amsg_exit
 .text          0x000000000041c5e8        0x0 D:/ITI/lectures/5-Intro to ES- Assaf/Tools/General Tools/mingw64/bin/../lib/gcc/x86_64-w64-mingw32/6.2.0/../../../../x86_64-w64-mingw32/lib/../lib/libmsvcrt.a(dekes00116.o)
 .text          0x000000000041c5e8        0x8 D:/ITI/lectures/5-Intro to ES- Assaf/Tools/General Tools/mingw64/bin/../lib/gcc/x86_64-w64-mingw32/6.2.0/../../../../x86_64-w64-mingw32/lib/../lib/libmsvcrt.a(dekes00099.o)
                0x000000000041c5e8                __setusermatherr
 .text          0x000000000041c5f0        0x8 D:/ITI/lectures/5-Intro to ES- Assaf/Tools/General Tools/mingw64/bin/../lib/gcc/x86_64-w64-mingw32/6.2.0/../../../../x86_64-w64-mingw32/lib/../lib/libmsvcrt.a(dekes00097.o)
                0x000000000041c5f0                __set_app_type
 .text          0x000000000041c5f8        0x8 D:/ITI/lectures/5-Intro to ES- Assaf/Tools/General Tools/mingw64/bin/../lib/gcc/x86_64-w64-mingw32/6.2.0/../../../../x86_64-w64-mingw32/lib/../lib/libmsvcrt.a(dekes00091.o)
                0x000000000041c5f8                __lconv_init
 .text          0x000000000041c600        0x8 D:/ITI/lectures/5-Intro to ES- Assaf/Tools/General Tools/mingw64/bin/../lib/gcc/x86_64-w64-mingw32/6.2.0/../../../../x86_64-w64-mingw32/lib/../lib/libmsvcrt.a(dekes00083.o)
                0x000000000041c600                __iob_func
 .text          0x000000000041c608        0x0 D:/ITI/lectures/5-Intro to ES- Assaf/Tools/General Tools/mingw64/bin/../lib/gcc/x86_64-w64-mingw32/6.2.0/../../../../x86_64-w64-mingw32/lib/../lib/libmsvcrt.a(dekes00082.o)
 .text          0x000000000041c608        0x8 D:/ITI/lectures/5-Intro to ES- Assaf/Tools/General Tools/mingw64/bin/../lib/gcc/x86_64-w64-mingw32/6.2.0/../../../../x86_64-w64-mingw32/lib/../lib/libmsvcrt.a(dekes00081.o)
                0x000000000041c608                __getmainargs
 .text          0x000000000041c610        0x8 D:/ITI/lectures/5-Intro to ES- Assaf/Tools/General Tools/mingw64/bin/../lib/gcc/x86_64-w64-mingw32/6.2.0/../../../../x86_64-w64-mingw32/lib/../lib/libmsvcrt.a(dekes00078.o)
                0x000000000041c610                __dllonexit
 .text          0x000000000041c618        0x8 D:/ITI/lectures/5-Intro to ES- Assaf/Tools/General Tools/mingw64/bin/../lib/gcc/x86_64-w64-mingw32/6.2.0/../../../../x86_64-w64-mingw32/lib/../lib/libmsvcrt.a(dekes00055.o)
                0x000000000041c618                __C_specific_handler
 .text          0x000000000041c620       0x20 D:/ITI/lectures/5-Intro to ES- Assaf/Tools/General Tools/mingw64/bin/../lib/gcc/x86_64-w64-mingw32/6.2.0/../../../../x86_64-w64-mingw32/lib/../lib/libmsvcrt.a(lib64_libmsvcrt_a-invalid_parameter_handler.o)
                0x000000000041c620                _get_invalid_parameter_handler
                0x000000000041c630                _set_invalid_parameter_handler
 .text          0x000000000041c640        0x0 D:/ITI/lectures/5-Intro to ES- Assaf/Tools/General Tools/mingw64/bin/../lib/gcc/x86_64-w64-mingw32/6.2.0/../../../../x86_64-w64-mingw32/lib/../lib/libmsvcrt.a(dekeh.o)
 .text          0x000000000041c640        0x0 D:/ITI/lectures/5-Intro to ES- Assaf/Tools/General Tools/mingw64/bin/../lib/gcc/x86_64-w64-mingw32/6.2.0/../../../../x86_64-w64-mingw32/lib/../lib/libmsvcrt.a(deket.o)
 .text          0x000000000041c640        0x8 D:/ITI/lectures/5-Intro to ES- Assaf/Tools/General Tools/mingw64/bin/../lib/gcc/x86_64-w64-mingw32/6.2.0/../../../../x86_64-w64-mingw32/lib/../lib/libkernel32.a(dmmds01274.o)
                0x000000000041c640                WaitForSingleObject
 .text          0x000000000041c648        0x8 D:/ITI/lectures/5-Intro to ES- Assaf/Tools/General Tools/mingw64/bin/../lib/gcc/x86_64-w64-mingw32/6.2.0/../../../../x86_64-w64-mingw32/lib/../lib/libkernel32.a(dmmds01272.o)
                0x000000000041c648                WaitForMultipleObjects
 .text          0x000000000041c650        0x8 D:/ITI/lectures/5-Intro to ES- Assaf/Tools/General Tools/mingw64/bin/../lib/gcc/x86_64-w64-mingw32/6.2.0/../../../../x86_64-w64-mingw32/lib/../lib/libkernel32.a(dmmds01266.o)
                0x000000000041c650                VirtualQuery
 .text          0x000000000041c658        0x8 D:/ITI/lectures/5-Intro to ES- Assaf/Tools/General Tools/mingw64/bin/../lib/gcc/x86_64-w64-mingw32/6.2.0/../../../../x86_64-w64-mingw32/lib/../lib/libkernel32.a(dmmds01264.o)
                0x000000000041c658                VirtualProtect
 .text          0x000000000041c660        0x8 D:/ITI/lectures/5-Intro to ES- Assaf/Tools/General Tools/mingw64/bin/../lib/gcc/x86_64-w64-mingw32/6.2.0/../../../../x86_64-w64-mingw32/lib/../lib/libkernel32.a(dmmds01234.o)
                0x000000000041c660                UnhandledExceptionFilter
 .text          0x000000000041c668        0x8 D:/ITI/lectures/5-Intro to ES- Assaf/Tools/General Tools/mingw64/bin/../lib/gcc/x86_64-w64-mingw32/6.2.0/../../../../x86_64-w64-mingw32/lib/../lib/libkernel32.a(dmmds01221.o)
                0x000000000041c668                TlsGetValue
 .text          0x000000000041c670        0x8 D:/ITI/lectures/5-Intro to ES- Assaf/Tools/General Tools/mingw64/bin/../lib/gcc/x86_64-w64-mingw32/6.2.0/../../../../x86_64-w64-mingw32/lib/../lib/libkernel32.a(dmmds01215.o)
                0x000000000041c670                TerminateThread
 .text          0x000000000041c678        0x8 D:/ITI/lectures/5-Intro to ES- Assaf/Tools/General Tools/mingw64/bin/../lib/gcc/x86_64-w64-mingw32/6.2.0/../../../../x86_64-w64-mingw32/lib/../lib/libkernel32.a(dmmds01214.o)
                0x000000000041c678                TerminateProcess
 .text          0x000000000041c680        0x8 D:/ITI/lectures/5-Intro to ES- Assaf/Tools/General Tools/mingw64/bin/../lib/gcc/x86_64-w64-mingw32/6.2.0/../../../../x86_64-w64-mingw32/lib/../lib/libkernel32.a(dmmds01208.o)
                0x000000000041c680                SuspendThread
 .text          0x000000000041c688        0x8 D:/ITI/lectures/5-Intro to ES- Assaf/Tools/General Tools/mingw64/bin/../lib/gcc/x86_64-w64-mingw32/6.2.0/../../../../x86_64-w64-mingw32/lib/../lib/libkernel32.a(dmmds01200.o)
                0x000000000041c688                Sleep
 .text          0x000000000041c690        0x8 D:/ITI/lectures/5-Intro to ES- Assaf/Tools/General Tools/mingw64/bin/../lib/gcc/x86_64-w64-mingw32/6.2.0/../../../../x86_64-w64-mingw32/lib/../lib/libkernel32.a(dmmds01187.o)
                0x000000000041c690                SetUnhandledExceptionFilter
 .text          0x000000000041c698        0x8 D:/ITI/lectures/5-Intro to ES- Assaf/Tools/General Tools/mingw64/bin/../lib/gcc/x86_64-w64-mingw32/6.2.0/../../../../x86_64-w64-mingw32/lib/../lib/libkernel32.a(dmmds01175.o)
                0x000000000041c698                SetThreadPriorityBoost
 .text          0x000000000041c6a0        0x8 D:/ITI/lectures/5-Intro to ES- Assaf/Tools/General Tools/mingw64/bin/../lib/gcc/x86_64-w64-mingw32/6.2.0/../../../../x86_64-w64-mingw32/lib/../lib/libkernel32.a(dmmds01174.o)
                0x000000000041c6a0                SetThreadPriority
 .text          0x000000000041c6a8        0x8 D:/ITI/lectures/5-Intro to ES- Assaf/Tools/General Tools/mingw64/bin/../lib/gcc/x86_64-w64-mingw32/6.2.0/../../../../x86_64-w64-mingw32/lib/../lib/libkernel32.a(dmmds01165.o)
                0x000000000041c6a8                SetThreadAffinityMask
 .text          0x000000000041c6b0        0x8 D:/ITI/lectures/5-Intro to ES- Assaf/Tools/General Tools/mingw64/bin/../lib/gcc/x86_64-w64-mingw32/6.2.0/../../../../x86_64-w64-mingw32/lib/../lib/libkernel32.a(dmmds01146.o)
                0x000000000041c6b0                SetPriorityClass
 .text          0x000000000041c6b8        0x8 D:/ITI/lectures/5-Intro to ES- Assaf/Tools/General Tools/mingw64/bin/../lib/gcc/x86_64-w64-mingw32/6.2.0/../../../../x86_64-w64-mingw32/lib/../lib/libkernel32.a(dmmds01111.o)
                0x000000000041c6b8                SetEvent
 .text          0x000000000041c6c0        0x8 D:/ITI/lectures/5-Intro to ES- Assaf/Tools/General Tools/mingw64/bin/../lib/gcc/x86_64-w64-mingw32/6.2.0/../../../../x86_64-w64-mingw32/lib/../lib/libkernel32.a(dmmds01067.o)
                0x000000000041c6c0                SetConsoleCtrlHandler
 .text          0x000000000041c6c8        0x8 D:/ITI/lectures/5-Intro to ES- Assaf/Tools/General Tools/mingw64/bin/../lib/gcc/x86_64-w64-mingw32/6.2.0/../../../../x86_64-w64-mingw32/lib/../lib/libkernel32.a(dmmds01044.o)
                0x000000000041c6c8                RtlVirtualUnwind
 .text          0x000000000041c6d0        0x8 D:/ITI/lectures/5-Intro to ES- Assaf/Tools/General Tools/mingw64/bin/../lib/gcc/x86_64-w64-mingw32/6.2.0/../../../../x86_64-w64-mingw32/lib/../lib/libkernel32.a(dmmds01037.o)
                0x000000000041c6d0                RtlLookupFunctionEntry
 .text          0x000000000041c6d8        0x8 D:/ITI/lectures/5-Intro to ES- Assaf/Tools/General Tools/mingw64/bin/../lib/gcc/x86_64-w64-mingw32/6.2.0/../../../../x86_64-w64-mingw32/lib/../lib/libkernel32.a(dmmds01030.o)
                0x000000000041c6d8                RtlCaptureContext
 .text          0x000000000041c6e0        0x8 D:/ITI/lectures/5-Intro to ES- Assaf/Tools/General Tools/mingw64/bin/../lib/gcc/x86_64-w64-mingw32/6.2.0/../../../../x86_64-w64-mingw32/lib/../lib/libkernel32.a(dmmds01029.o)
                0x000000000041c6e0                RtlAddFunctionTable
 .text          0x000000000041c6e8        0x8 D:/ITI/lectures/5-Intro to ES- Assaf/Tools/General Tools/mingw64/bin/../lib/gcc/x86_64-w64-mingw32/6.2.0/../../../../x86_64-w64-mingw32/lib/../lib/libkernel32.a(dmmds01028.o)
                0x000000000041c6e8                ResumeThread
 .text          0x000000000041c6f0        0x8 D:/ITI/lectures/5-Intro to ES- Assaf/Tools/General Tools/mingw64/bin/../lib/gcc/x86_64-w64-mingw32/6.2.0/../../../../x86_64-w64-mingw32/lib/../lib/libkernel32.a(dmmds01024.o)
                0x000000000041c6f0                ResetEvent
 .text          0x000000000041c6f8        0x8 D:/ITI/lectures/5-Intro to ES- Assaf/Tools/General Tools/mingw64/bin/../lib/gcc/x86_64-w64-mingw32/6.2.0/../../../../x86_64-w64-mingw32/lib/../lib/libkernel32.a(dmmds01003.o)
                0x000000000041c6f8                ReleaseMutex
 .text          0x000000000041c700        0x8 D:/ITI/lectures/5-Intro to ES- Assaf/Tools/General Tools/mingw64/bin/../lib/gcc/x86_64-w64-mingw32/6.2.0/../../../../x86_64-w64-mingw32/lib/../lib/libkernel32.a(dmmds00959.o)
                0x000000000041c700                QueryPerformanceFrequency
 .text          0x000000000041c708        0x8 D:/ITI/lectures/5-Intro to ES- Assaf/Tools/General Tools/mingw64/bin/../lib/gcc/x86_64-w64-mingw32/6.2.0/../../../../x86_64-w64-mingw32/lib/../lib/libkernel32.a(dmmds00958.o)
                0x000000000041c708                QueryPerformanceCounter
 .text          0x000000000041c710        0x8 D:/ITI/lectures/5-Intro to ES- Assaf/Tools/General Tools/mingw64/bin/../lib/gcc/x86_64-w64-mingw32/6.2.0/../../../../x86_64-w64-mingw32/lib/../lib/libkernel32.a(dmmds00844.o)
                0x000000000041c710                LeaveCriticalSection
 .text          0x000000000041c718        0x8 D:/ITI/lectures/5-Intro to ES- Assaf/Tools/General Tools/mingw64/bin/../lib/gcc/x86_64-w64-mingw32/6.2.0/../../../../x86_64-w64-mingw32/lib/../lib/libkernel32.a(dmmds00762.o)
                0x000000000041c718                InitializeCriticalSection
 .text          0x000000000041c720        0x8 D:/ITI/lectures/5-Intro to ES- Assaf/Tools/General Tools/mingw64/bin/../lib/gcc/x86_64-w64-mingw32/6.2.0/../../../../x86_64-w64-mingw32/lib/../lib/libkernel32.a(dmmds00678.o)
                0x000000000041c720                GetTickCount
 .text          0x000000000041c728        0x8 D:/ITI/lectures/5-Intro to ES- Assaf/Tools/General Tools/mingw64/bin/../lib/gcc/x86_64-w64-mingw32/6.2.0/../../../../x86_64-w64-mingw32/lib/../lib/libkernel32.a(dmmds00665.o)
                0x000000000041c728                GetThreadContext
 .text          0x000000000041c730        0x8 D:/ITI/lectures/5-Intro to ES- Assaf/Tools/General Tools/mingw64/bin/../lib/gcc/x86_64-w64-mingw32/6.2.0/../../../../x86_64-w64-mingw32/lib/../lib/libkernel32.a(dmmds00651.o)
                0x000000000041c730                GetSystemTimeAsFileTime
 .text          0x000000000041c738        0x8 D:/ITI/lectures/5-Intro to ES- Assaf/Tools/General Tools/mingw64/bin/../lib/gcc/x86_64-w64-mingw32/6.2.0/../../../../x86_64-w64-mingw32/lib/../lib/libkernel32.a(dmmds00645.o)
                0x000000000041c738                GetSystemInfo
 .text          0x000000000041c740        0x8 D:/ITI/lectures/5-Intro to ES- Assaf/Tools/General Tools/mingw64/bin/../lib/gcc/x86_64-w64-mingw32/6.2.0/../../../../x86_64-w64-mingw32/lib/../lib/libkernel32.a(dmmds00628.o)
                0x000000000041c740                GetStartupInfoA
 .text          0x000000000041c748        0x8 D:/ITI/lectures/5-Intro to ES- Assaf/Tools/General Tools/mingw64/bin/../lib/gcc/x86_64-w64-mingw32/6.2.0/../../../../x86_64-w64-mingw32/lib/../lib/libkernel32.a(dmmds00599.o)
                0x000000000041c748                GetProcAddress
 .text          0x000000000041c750        0x8 D:/ITI/lectures/5-Intro to ES- Assaf/Tools/General Tools/mingw64/bin/../lib/gcc/x86_64-w64-mingw32/6.2.0/../../../../x86_64-w64-mingw32/lib/../lib/libkernel32.a(dmmds00549.o)
                0x000000000041c750                GetModuleHandleA
 .text          0x000000000041c758        0x8 D:/ITI/lectures/5-Intro to ES- Assaf/Tools/General Tools/mingw64/bin/../lib/gcc/x86_64-w64-mingw32/6.2.0/../../../../x86_64-w64-mingw32/lib/../lib/libkernel32.a(dmmds00529.o)
                0x000000000041c758                GetLastError
 .text          0x000000000041c760        0x8 D:/ITI/lectures/5-Intro to ES- Assaf/Tools/General Tools/mingw64/bin/../lib/gcc/x86_64-w64-mingw32/6.2.0/../../../../x86_64-w64-mingw32/lib/../lib/libkernel32.a(dmmds00467.o)
                0x000000000041c760                GetCurrentThreadId
 .text          0x000000000041c768        0x8 D:/ITI/lectures/5-Intro to ES- Assaf/Tools/General Tools/mingw64/bin/../lib/gcc/x86_64-w64-mingw32/6.2.0/../../../../x86_64-w64-mingw32/lib/../lib/libkernel32.a(dmmds00466.o)
                0x000000000041c768                GetCurrentThread
 .text          0x000000000041c770        0x8 D:/ITI/lectures/5-Intro to ES- Assaf/Tools/General Tools/mingw64/bin/../lib/gcc/x86_64-w64-mingw32/6.2.0/../../../../x86_64-w64-mingw32/lib/../lib/libkernel32.a(dmmds00463.o)
                0x000000000041c770                GetCurrentProcessId
 .text          0x000000000041c778        0x8 D:/ITI/lectures/5-Intro to ES- Assaf/Tools/General Tools/mingw64/bin/../lib/gcc/x86_64-w64-mingw32/6.2.0/../../../../x86_64-w64-mingw32/lib/../lib/libkernel32.a(dmmds00462.o)
                0x000000000041c778                GetCurrentProcess
 .text          0x000000000041c780        0x8 D:/ITI/lectures/5-Intro to ES- Assaf/Tools/General Tools/mingw64/bin/../lib/gcc/x86_64-w64-mingw32/6.2.0/../../../../x86_64-w64-mingw32/lib/../lib/libkernel32.a(dmmds00295.o)
                0x000000000041c780                ExitThread
 .text          0x000000000041c788        0x8 D:/ITI/lectures/5-Intro to ES- Assaf/Tools/General Tools/mingw64/bin/../lib/gcc/x86_64-w64-mingw32/6.2.0/../../../../x86_64-w64-mingw32/lib/../lib/libkernel32.a(dmmds00249.o)
                0x000000000041c788                EnterCriticalSection
 .text          0x000000000041c790        0x8 D:/ITI/lectures/5-Intro to ES- Assaf/Tools/General Tools/mingw64/bin/../lib/gcc/x86_64-w64-mingw32/6.2.0/../../../../x86_64-w64-mingw32/lib/../lib/libkernel32.a(dmmds00216.o)
                0x000000000041c790                DeleteCriticalSection
 .text          0x000000000041c798        0x8 D:/ITI/lectures/5-Intro to ES- Assaf/Tools/General Tools/mingw64/bin/../lib/gcc/x86_64-w64-mingw32/6.2.0/../../../../x86_64-w64-mingw32/lib/../lib/libkernel32.a(dmmds00186.o)
                0x000000000041c798                CreateThread
 .text          0x000000000041c7a0        0x8 D:/ITI/lectures/5-Intro to ES- Assaf/Tools/General Tools/mingw64/bin/../lib/gcc/x86_64-w64-mingw32/6.2.0/../../../../x86_64-w64-mingw32/lib/../lib/libkernel32.a(dmmds00160.o)
                0x000000000041c7a0                CreateMutexA
 .text          0x000000000041c7a8        0x8 D:/ITI/lectures/5-Intro to ES- Assaf/Tools/General Tools/mingw64/bin/../lib/gcc/x86_64-w64-mingw32/6.2.0/../../../../x86_64-w64-mingw32/lib/../lib/libkernel32.a(dmmds00134.o)
                0x000000000041c7a8                CreateEventA
 .text          0x000000000041c7b0        0x8 D:/ITI/lectures/5-Intro to ES- Assaf/Tools/General Tools/mingw64/bin/../lib/gcc/x86_64-w64-mingw32/6.2.0/../../../../x86_64-w64-mingw32/lib/../lib/libkernel32.a(dmmds00085.o)
                0x000000000041c7b0                CloseHandle
 *fill*         0x000000000041c7b8        0x8 
 .text          0x000000000041c7c0        0x0 D:/ITI/lectures/5-Intro to ES- Assaf/Tools/General Tools/mingw64/bin/../lib/gcc/x86_64-w64-mingw32/6.2.0/../../../../x86_64-w64-mingw32/lib/../lib/libkernel32.a(dmmdh.o)
 .text          0x000000000041c7c0        0x0 D:/ITI/lectures/5-Intro to ES- Assaf/Tools/General Tools/mingw64/bin/../lib/gcc/x86_64-w64-mingw32/6.2.0/../../../../x86_64-w64-mingw32/lib/../lib/libkernel32.a(dmmdt.o)
 .text          0x000000000041c7c0        0x0 D:/ITI/lectures/5-Intro to ES- Assaf/Tools/General Tools/mingw64/bin/../lib/gcc/x86_64-w64-mingw32/6.2.0/crtend.o
 *(SORT(.text$*))
 *(.text.*)
 .text.unlikely
                0x000000000041c7c0        0x0 D:/ITI/lectures/5-Intro to ES- Assaf/Tools/General Tools/mingw64/bin/../lib/gcc/x86_64-w64-mingw32/6.2.0/../../../../x86_64-w64-mingw32/lib/../lib/crt2.o
 .text.unlikely
                0x000000000041c7c0        0x0 D:/ITI/lectures/5-Intro to ES- Assaf/Tools/General Tools/mingw64/bin/../lib/gcc/x86_64-w64-mingw32/6.2.0/../../../../x86_64-w64-mingw32/lib/../lib/libmingw32.a(lib64_libmingw32_a-atonexit.o)
 .text.unlikely
                0x000000000041c7c0        0x0 D:/ITI/lectures/5-Intro to ES- Assaf/Tools/General Tools/mingw64/bin/../lib/gcc/x86_64-w64-mingw32/6.2.0/../../../../x86_64-w64-mingw32/lib/../lib/libmingw32.a(lib64_libmingw32_a-gccmain.o)
 .text.unlikely
                0x000000000041c7c0        0x0 D:/ITI/lectures/5-Intro to ES- Assaf/Tools/General Tools/mingw64/bin/../lib/gcc/x86_64-w64-mingw32/6.2.0/../../../../x86_64-w64-mingw32/lib/../lib/libmingw32.a(lib64_libmingw32_a-charmax.o)
 .text.unlikely
                0x000000000041c7c0        0x0 D:/ITI/lectures/5-Intro to ES- Assaf/Tools/General Tools/mingw64/bin/../lib/gcc/x86_64-w64-mingw32/6.2.0/../../../../x86_64-w64-mingw32/lib/../lib/libmingw32.a(lib64_libmingw32_a-dllargv.o)
 .text.unlikely
                0x000000000041c7c0        0x0 D:/ITI/lectures/5-Intro to ES- Assaf/Tools/General Tools/mingw64/bin/../lib/gcc/x86_64-w64-mingw32/6.2.0/../../../../x86_64-w64-mingw32/lib/../lib/libmingw32.a(lib64_libmingw32_a-gs_support.o)
 .text.unlikely
                0x000000000041c7c0        0x0 D:/ITI/lectures/5-Intro to ES- Assaf/Tools/General Tools/mingw64/bin/../lib/gcc/x86_64-w64-mingw32/6.2.0/../../../../x86_64-w64-mingw32/lib/../lib/libmingw32.a(lib64_libmingw32_a-tlssup.o)
 .text.unlikely
                0x000000000041c7c0        0x0 D:/ITI/lectures/5-Intro to ES- Assaf/Tools/General Tools/mingw64/bin/../lib/gcc/x86_64-w64-mingw32/6.2.0/../../../../x86_64-w64-mingw32/lib/../lib/libmingw32.a(lib64_libmingw32_a-merr.o)
 .text.unlikely
                0x000000000041c7c0        0x0 D:/ITI/lectures/5-Intro to ES- Assaf/Tools/General Tools/mingw64/bin/../lib/gcc/x86_64-w64-mingw32/6.2.0/../../../../x86_64-w64-mingw32/lib/../lib/libmingw32.a(lib64_libmingw32_a-CRT_fp10.o)
 .text.unlikely
                0x000000000041c7c0        0x0 D:/ITI/lectures/5-Intro to ES- Assaf/Tools/General Tools/mingw64/bin/../lib/gcc/x86_64-w64-mingw32/6.2.0/../../../../x86_64-w64-mingw32/lib/../lib/libmingw32.a(lib64_libmingw32_a-mingw_helpers.o)
 .text.unlikely
                0x000000000041c7c0        0x0 D:/ITI/lectures/5-Intro to ES- Assaf/Tools/General Tools/mingw64/bin/../lib/gcc/x86_64-w64-mingw32/6.2.0/../../../../x86_64-w64-mingw32/lib/../lib/libmingw32.a(lib64_libmingw32_a-pseudo-reloc.o)
 .text.unlikely
                0x000000000041c7c0        0x0 D:/ITI/lectures/5-Intro to ES- Assaf/Tools/General Tools/mingw64/bin/../lib/gcc/x86_64-w64-mingw32/6.2.0/../../../../x86_64-w64-mingw32/lib/../lib/libmingw32.a(lib64_libmingw32_a-crt_handler.o)
 .text.unlikely
                0x000000000041c7c0        0x0 D:/ITI/lectures/5-Intro to ES- Assaf/Tools/General Tools/mingw64/bin/../lib/gcc/x86_64-w64-mingw32/6.2.0/../../../../x86_64-w64-mingw32/lib/../lib/libmingw32.a(lib64_libmingw32_a-tlsthrd.o)
 .text.unlikely
                0x000000000041c7c0        0x0 D:/ITI/lectures/5-Intro to ES- Assaf/Tools/General Tools/mingw64/bin/../lib/gcc/x86_64-w64-mingw32/6.2.0/../../../../x86_64-w64-mingw32/lib/../lib/libmingw32.a(lib64_libmingw32_a-pesect.o)
 .text.unlikely
                0x000000000041c7c0        0x0 D:/ITI/lectures/5-Intro to ES- Assaf/Tools/General Tools/mingw64/bin/../lib/gcc/x86_64-w64-mingw32/6.2.0/../../../../x86_64-w64-mingw32/lib/../lib/libmsvcrt.a(lib64_libmsvcrt_a-invalid_parameter_handler.o)
 .text.startup  0x000000000041c7c0       0x10 D:/ITI/lectures/5-Intro to ES- Assaf/Tools/General Tools/mingw64/bin/../lib/gcc/x86_64-w64-mingw32/6.2.0/crtend.o
 *(.gnu.linkonce.t.*)
 *(.glue_7t)
 *(.glue_7)
                0x000000000041c7d0                . = ALIGN (0x8)
                0x000000000041c7d0                ___CTOR_LIST__ = .
                0x000000000041c7d0                __CTOR_LIST__ = .
                0x000000000041c7d0        0x4 LONG 0xffffffffffffffff
                0x000000000041c7d4        0x4 LONG 0xffffffffffffffff
 *(.ctors)
 *(.ctor)
 *(SORT(.ctors.*))
 .ctors.65535   0x000000000041c7d8        0x8 D:/ITI/lectures/5-Intro to ES- Assaf/Tools/General Tools/mingw64/bin/../lib/gcc/x86_64-w64-mingw32/6.2.0/crtend.o
                0x000000000041c7e0        0x4 LONG 0x0
                0x000000000041c7e4        0x4 LONG 0x0
                0x000000000041c7e8                ___DTOR_LIST__ = .
                0x000000000041c7e8                __DTOR_LIST__ = .
                0x000000000041c7e8        0x4 LONG 0xffffffffffffffff
                0x000000000041c7ec        0x4 LONG 0xffffffffffffffff
 *(.dtors)
 *(.dtor)
 *(SORT(.dtors.*))
                0x000000000041c7f0        0x4 LONG 0x0
                0x000000000041c7f4        0x4 LONG 0x0
 *(.fini)
 *(.gcc_exc)
                0x000000000041c7f8                PROVIDE (etext, .)
 *(.gcc_except_table)

.data           0x000000000041d000      0x200
                0x000000000041d000                __data_start__ = .
 *(.data)
 .data          0x000000000041d000       0x10 D:/ITI/lectures/5-Intro to ES- Assaf/Tools/General Tools/mingw64/bin/../lib/gcc/x86_64-w64-mingw32/6.2.0/../../../../x86_64-w64-mingw32/lib/../lib/crt2.o
                0x000000000041d000                __mingw_winmain_nShowCmd
 .data          0x000000000041d010        0x0 D:/ITI/lectures/5-Intro to ES- Assaf/Tools/General Tools/mingw64/bin/../lib/gcc/x86_64-w64-mingw32/6.2.0/crtbegin.o
 .data          0x000000000041d010        0x0 DemosModifiedForLowTickRate\recmutex.o
 .data          0x000000000041d010        0x0 FreeRTOS_Source\croutine.o
 .data          0x000000000041d010        0x0 FreeRTOS_Source\event_groups.o
 .data          0x000000000041d010        0x0 FreeRTOS_Source\list.o
 .data          0x000000000041d010       0x10 FreeRTOS_Source\portable\MSVC-MingW\port.o
 .data          0x000000000041d020        0x0 FreeRTOS_Source\portable\MemMang\heap_5.o
 .data          0x000000000041d020        0x0 FreeRTOS_Source\queue.o
 .data          0x000000000041d020        0x0 FreeRTOS_Source\stream_buffer.o
 .data          0x000000000041d020        0x0 FreeRTOS_Source\tasks.o
 .data          0x000000000041d020        0x0 FreeRTOS_Source\timers.o
 .data          0x000000000041d020        0x0 MyTask.o
 .data          0x000000000041d020        0x0 Run-time-stats-utils.o
 .data          0x000000000041d020       0x10 Standard_Demo_Tasks\AbortDelay.o
 .data          0x000000000041d030        0x0 Standard_Demo_Tasks\BlockQ.o
 .data          0x000000000041d030        0x0 Standard_Demo_Tasks\EventGroupsDemo.o
 .data          0x000000000041d030        0x0 Standard_Demo_Tasks\GenQTest.o
 .data          0x000000000041d030        0x0 Standard_Demo_Tasks\IntSemTest.o
 .data          0x000000000041d030       0x10 Standard_Demo_Tasks\MessageBufferAMP.o
                0x000000000041d030                xDemoStatus
 .data          0x000000000041d040       0x10 Standard_Demo_Tasks\MessageBufferDemo.o
 .data          0x000000000041d050        0x0 Standard_Demo_Tasks\PollQ.o
 .data          0x000000000041d050        0x0 Standard_Demo_Tasks\QPeek.o
 .data          0x000000000041d050       0x10 Standard_Demo_Tasks\QueueOverwrite.o
 .data          0x000000000041d060       0x10 Standard_Demo_Tasks\QueueSet.o
 .data          0x000000000041d070       0x10 Standard_Demo_Tasks\QueueSetPolling.o
 .data          0x000000000041d080        0x0 Standard_Demo_Tasks\StaticAllocation.o
 .data          0x000000000041d080       0x20 Standard_Demo_Tasks\StreamBufferDemo.o
 .data          0x000000000041d0a0       0x20 Standard_Demo_Tasks\StreamBufferInterrupt.o
 .data          0x000000000041d0c0       0x10 Standard_Demo_Tasks\TaskNotify.o
 .data          0x000000000041d0d0       0x10 Standard_Demo_Tasks\TimerDemo.o
 .data          0x000000000041d0e0        0x0 Standard_Demo_Tasks\blocktim.o
 .data          0x000000000041d0e0        0x0 Standard_Demo_Tasks\countsem.o
 .data          0x000000000041d0e0       0x10 Standard_Demo_Tasks\death.o
 .data          0x000000000041d0f0        0x0 Standard_Demo_Tasks\dynamic.o
 .data          0x000000000041d0f0        0x0 Standard_Demo_Tasks\flop.o
 .data          0x000000000041d0f0        0x0 Standard_Demo_Tasks\integer.o
 .data          0x000000000041d0f0        0x0 Standard_Demo_Tasks\semtest.o
 .data          0x000000000041d0f0        0x0 code_coverage_additions.o
 .data          0x000000000041d0f0       0x10 main.o
 .data          0x000000000041d100        0x0 main_blinky.o
 .data          0x000000000041d100       0x10 main_full.o
 .data          0x000000000041d110        0x0 D:/ITI/lectures/5-Intro to ES- Assaf/Tools/General Tools/mingw64/bin/../lib/gcc/x86_64-w64-mingw32/6.2.0/../../../../x86_64-w64-mingw32/lib/../lib/libwinmm.a(dmces00151.o)
 .data          0x000000000041d110        0x0 D:/ITI/lectures/5-Intro to ES- Assaf/Tools/General Tools/mingw64/bin/../lib/gcc/x86_64-w64-mingw32/6.2.0/../../../../x86_64-w64-mingw32/lib/../lib/libwinmm.a(dmces00150.o)
 .data          0x000000000041d110        0x0 D:/ITI/lectures/5-Intro to ES- Assaf/Tools/General Tools/mingw64/bin/../lib/gcc/x86_64-w64-mingw32/6.2.0/../../../../x86_64-w64-mingw32/lib/../lib/libwinmm.a(dmces00149.o)
 .data          0x000000000041d110        0x0 D:/ITI/lectures/5-Intro to ES- Assaf/Tools/General Tools/mingw64/bin/../lib/gcc/x86_64-w64-mingw32/6.2.0/../../../../x86_64-w64-mingw32/lib/../lib/libwinmm.a(dmceh.o)
 .data          0x000000000041d110        0x0 D:/ITI/lectures/5-Intro to ES- Assaf/Tools/General Tools/mingw64/bin/../lib/gcc/x86_64-w64-mingw32/6.2.0/../../../../x86_64-w64-mingw32/lib/../lib/libwinmm.a(dmcet.o)
 .data          0x000000000041d110        0x0 D:/ITI/lectures/5-Intro to ES- Assaf/Tools/General Tools/mingw64/bin/../lib/gcc/x86_64-w64-mingw32/6.2.0/../../../../x86_64-w64-mingw32/lib/../lib/libmingw32.a(lib64_libmingw32_a-atonexit.o)
 .data          0x000000000041d110       0x10 D:/ITI/lectures/5-Intro to ES- Assaf/Tools/General Tools/mingw64/bin/../lib/gcc/x86_64-w64-mingw32/6.2.0/../../../../x86_64-w64-mingw32/lib/../lib/libmingw32.a(lib64_libmingw32_a-gccmain.o)
 .data          0x000000000041d120       0x10 D:/ITI/lectures/5-Intro to ES- Assaf/Tools/General Tools/mingw64/bin/../lib/gcc/x86_64-w64-mingw32/6.2.0/../../../../x86_64-w64-mingw32/lib/../lib/libmingw32.a(lib64_libmingw32_a-natstart.o)
                0x000000000041d120                __native_vcclrit_reason
                0x000000000041d124                __native_dllmain_reason
 .data          0x000000000041d130       0x10 D:/ITI/lectures/5-Intro to ES- Assaf/Tools/General Tools/mingw64/bin/../lib/gcc/x86_64-w64-mingw32/6.2.0/../../../../x86_64-w64-mingw32/lib/../lib/libmingw32.a(lib64_libmingw32_a-wildcard.o)
                0x000000000041d130                _dowildcard
 .data          0x000000000041d140       0x10 D:/ITI/lectures/5-Intro to ES- Assaf/Tools/General Tools/mingw64/bin/../lib/gcc/x86_64-w64-mingw32/6.2.0/../../../../x86_64-w64-mingw32/lib/../lib/libmingw32.a(lib64_libmingw32_a-charmax.o)
                0x000000000041d140                _charmax
 .data          0x000000000041d150        0x0 D:/ITI/lectures/5-Intro to ES- Assaf/Tools/General Tools/mingw64/bin/../lib/gcc/x86_64-w64-mingw32/6.2.0/../../../../x86_64-w64-mingw32/lib/../lib/libmingw32.a(lib64_libmingw32_a-dllargv.o)
 .data          0x000000000041d150        0x0 D:/ITI/lectures/5-Intro to ES- Assaf/Tools/General Tools/mingw64/bin/../lib/gcc/x86_64-w64-mingw32/6.2.0/../../../../x86_64-w64-mingw32/lib/../lib/libmingw32.a(lib64_libmingw32_a-gs_support.o)
 .data          0x000000000041d150        0x0 D:/ITI/lectures/5-Intro to ES- Assaf/Tools/General Tools/mingw64/bin/../lib/gcc/x86_64-w64-mingw32/6.2.0/../../../../x86_64-w64-mingw32/lib/../lib/libmingw32.a(lib64_libmingw32_a-_newmode.o)
 .data          0x000000000041d150        0x0 D:/ITI/lectures/5-Intro to ES- Assaf/Tools/General Tools/mingw64/bin/../lib/gcc/x86_64-w64-mingw32/6.2.0/../../../../x86_64-w64-mingw32/lib/../lib/libmingw32.a(lib64_libmingw32_a-tlssup.o)
 .data          0x000000000041d150        0x0 D:/ITI/lectures/5-Intro to ES- Assaf/Tools/General Tools/mingw64/bin/../lib/gcc/x86_64-w64-mingw32/6.2.0/../../../../x86_64-w64-mingw32/lib/../lib/libmingw32.a(lib64_libmingw32_a-cinitexe.o)
 .data          0x000000000041d150        0x0 D:/ITI/lectures/5-Intro to ES- Assaf/Tools/General Tools/mingw64/bin/../lib/gcc/x86_64-w64-mingw32/6.2.0/../../../../x86_64-w64-mingw32/lib/../lib/libmingw32.a(lib64_libmingw32_a-merr.o)
 .data          0x000000000041d150        0x0 D:/ITI/lectures/5-Intro to ES- Assaf/Tools/General Tools/mingw64/bin/../lib/gcc/x86_64-w64-mingw32/6.2.0/../../../../x86_64-w64-mingw32/lib/../lib/libmingw32.a(lib64_libmingw32_a-CRT_fp10.o)
 .data          0x000000000041d150        0x0 D:/ITI/lectures/5-Intro to ES- Assaf/Tools/General Tools/mingw64/bin/../lib/gcc/x86_64-w64-mingw32/6.2.0/../../../../x86_64-w64-mingw32/lib/../lib/libmingw32.a(lib64_libmingw32_a-mingw_helpers.o)
 .data          0x000000000041d150        0x0 D:/ITI/lectures/5-Intro to ES- Assaf/Tools/General Tools/mingw64/bin/../lib/gcc/x86_64-w64-mingw32/6.2.0/../../../../x86_64-w64-mingw32/lib/../lib/libmingw32.a(lib64_libmingw32_a-pseudo-reloc.o)
 .data          0x000000000041d150        0x0 D:/ITI/lectures/5-Intro to ES- Assaf/Tools/General Tools/mingw64/bin/../lib/gcc/x86_64-w64-mingw32/6.2.0/../../../../x86_64-w64-mingw32/lib/../lib/libmingw32.a(lib64_libmingw32_a-xtxtmode.o)
 .data          0x000000000041d150        0x0 D:/ITI/lectures/5-Intro to ES- Assaf/Tools/General Tools/mingw64/bin/../lib/gcc/x86_64-w64-mingw32/6.2.0/../../../../x86_64-w64-mingw32/lib/../lib/libmingw32.a(lib64_libmingw32_a-crt_handler.o)
 .data          0x000000000041d150        0x0 D:/ITI/lectures/5-Intro to ES- Assaf/Tools/General Tools/mingw64/bin/../lib/gcc/x86_64-w64-mingw32/6.2.0/../../../../x86_64-w64-mingw32/lib/../lib/libmingw32.a(lib64_libmingw32_a-tlsthrd.o)
 .data          0x000000000041d150       0x10 D:/ITI/lectures/5-Intro to ES- Assaf/Tools/General Tools/mingw64/bin/../lib/gcc/x86_64-w64-mingw32/6.2.0/../../../../x86_64-w64-mingw32/lib/../lib/libmingw32.a(lib64_libmingw32_a-tlsmcrt.o)
                0x000000000041d150                _CRT_MT
 .data          0x000000000041d160        0x0 D:/ITI/lectures/5-Intro to ES- Assaf/Tools/General Tools/mingw64/bin/../lib/gcc/x86_64-w64-mingw32/6.2.0/../../../../x86_64-w64-mingw32/lib/../lib/libmingw32.a(lib64_libmingw32_a-pseudo-reloc-list.o)
 .data          0x000000000041d160        0x0 D:/ITI/lectures/5-Intro to ES- Assaf/Tools/General Tools/mingw64/bin/../lib/gcc/x86_64-w64-mingw32/6.2.0/../../../../x86_64-w64-mingw32/lib/../lib/libmingw32.a(lib64_libmingw32_a-pesect.o)
 .data          0x000000000041d160        0x0 D:/ITI/lectures/5-Intro to ES- Assaf/Tools/General Tools/mingw64/bin/../lib/gcc/x86_64-w64-mingw32/6.2.0/libgcc.a(_chkstk_ms.o)
 .data          0x000000000041d160        0x0 D:/ITI/lectures/5-Intro to ES- Assaf/Tools/General Tools/mingw64/bin/../lib/gcc/x86_64-w64-mingw32/6.2.0/libgcc.a(_ctors.o)
 .data          0x000000000041d160       0x10 D:/ITI/lectures/5-Intro to ES- Assaf/Tools/General Tools/mingw64/bin/../lib/gcc/x86_64-w64-mingw32/6.2.0/../../../../x86_64-w64-mingw32/lib/../lib/libmingwex.a(lib64_libmingwex_a-mingw_matherr.o)
                0x000000000041d160                _MINGW_INSTALL_DEBUG_MATHERR
 .data          0x000000000041d170        0x0 D:/ITI/lectures/5-Intro to ES- Assaf/Tools/General Tools/mingw64/bin/../lib/gcc/x86_64-w64-mingw32/6.2.0/../../../../x86_64-w64-mingw32/lib/../lib/libmsvcrt.a(dekes01240.o)
 .data          0x000000000041d170        0x0 D:/ITI/lectures/5-Intro to ES- Assaf/Tools/General Tools/mingw64/bin/../lib/gcc/x86_64-w64-mingw32/6.2.0/../../../../x86_64-w64-mingw32/lib/../lib/libmsvcrt.a(dekes01208.o)
 .data          0x000000000041d170        0x0 D:/ITI/lectures/5-Intro to ES- Assaf/Tools/General Tools/mingw64/bin/../lib/gcc/x86_64-w64-mingw32/6.2.0/../../../../x86_64-w64-mingw32/lib/../lib/libmsvcrt.a(dekes01205.o)
 .data          0x000000000041d170        0x0 D:/ITI/lectures/5-Intro to ES- Assaf/Tools/General Tools/mingw64/bin/../lib/gcc/x86_64-w64-mingw32/6.2.0/../../../../x86_64-w64-mingw32/lib/../lib/libmsvcrt.a(dekes01198.o)
 .data          0x000000000041d170        0x0 D:/ITI/lectures/5-Intro to ES- Assaf/Tools/General Tools/mingw64/bin/../lib/gcc/x86_64-w64-mingw32/6.2.0/../../../../x86_64-w64-mingw32/lib/../lib/libmsvcrt.a(dekes01189.o)
 .data          0x000000000041d170        0x0 D:/ITI/lectures/5-Intro to ES- Assaf/Tools/General Tools/mingw64/bin/../lib/gcc/x86_64-w64-mingw32/6.2.0/../../../../x86_64-w64-mingw32/lib/../lib/libmsvcrt.a(dekes01184.o)
 .data          0x000000000041d170        0x0 D:/ITI/lectures/5-Intro to ES- Assaf/Tools/General Tools/mingw64/bin/../lib/gcc/x86_64-w64-mingw32/6.2.0/../../../../x86_64-w64-mingw32/lib/../lib/libmsvcrt.a(dekes01173.o)
 .data          0x000000000041d170        0x0 D:/ITI/lectures/5-Intro to ES- Assaf/Tools/General Tools/mingw64/bin/../lib/gcc/x86_64-w64-mingw32/6.2.0/../../../../x86_64-w64-mingw32/lib/../lib/libmsvcrt.a(dekes01167.o)
 .data          0x000000000041d170        0x0 D:/ITI/lectures/5-Intro to ES- Assaf/Tools/General Tools/mingw64/bin/../lib/gcc/x86_64-w64-mingw32/6.2.0/../../../../x86_64-w64-mingw32/lib/../lib/libmsvcrt.a(dekes01166.o)
 .data          0x000000000041d170        0x0 D:/ITI/lectures/5-Intro to ES- Assaf/Tools/General Tools/mingw64/bin/../lib/gcc/x86_64-w64-mingw32/6.2.0/../../../../x86_64-w64-mingw32/lib/../lib/libmsvcrt.a(dekes01163.o)
 .data          0x000000000041d170        0x0 D:/ITI/lectures/5-Intro to ES- Assaf/Tools/General Tools/mingw64/bin/../lib/gcc/x86_64-w64-mingw32/6.2.0/../../../../x86_64-w64-mingw32/lib/../lib/libmsvcrt.a(dekes01156.o)
 .data          0x000000000041d170        0x0 D:/ITI/lectures/5-Intro to ES- Assaf/Tools/General Tools/mingw64/bin/../lib/gcc/x86_64-w64-mingw32/6.2.0/../../../../x86_64-w64-mingw32/lib/../lib/libmsvcrt.a(dekes01154.o)
 .data          0x000000000041d170        0x0 D:/ITI/lectures/5-Intro to ES- Assaf/Tools/General Tools/mingw64/bin/../lib/gcc/x86_64-w64-mingw32/6.2.0/../../../../x86_64-w64-mingw32/lib/../lib/libmsvcrt.a(dekes01153.o)
 .data          0x000000000041d170        0x0 D:/ITI/lectures/5-Intro to ES- Assaf/Tools/General Tools/mingw64/bin/../lib/gcc/x86_64-w64-mingw32/6.2.0/../../../../x86_64-w64-mingw32/lib/../lib/libmsvcrt.a(dekes01146.o)
 .data          0x000000000041d170        0x0 D:/ITI/lectures/5-Intro to ES- Assaf/Tools/General Tools/mingw64/bin/../lib/gcc/x86_64-w64-mingw32/6.2.0/../../../../x86_64-w64-mingw32/lib/../lib/libmsvcrt.a(dekes01099.o)
 .data          0x000000000041d170        0x0 D:/ITI/lectures/5-Intro to ES- Assaf/Tools/General Tools/mingw64/bin/../lib/gcc/x86_64-w64-mingw32/6.2.0/../../../../x86_64-w64-mingw32/lib/../lib/libmsvcrt.a(dekes01087.o)
 .data          0x000000000041d170        0x0 D:/ITI/lectures/5-Intro to ES- Assaf/Tools/General Tools/mingw64/bin/../lib/gcc/x86_64-w64-mingw32/6.2.0/../../../../x86_64-w64-mingw32/lib/../lib/libmsvcrt.a(dekes01080.o)
 .data          0x000000000041d170        0x0 D:/ITI/lectures/5-Intro to ES- Assaf/Tools/General Tools/mingw64/bin/../lib/gcc/x86_64-w64-mingw32/6.2.0/../../../../x86_64-w64-mingw32/lib/../lib/libmsvcrt.a(dekes01078.o)
 .data          0x000000000041d170        0x0 D:/ITI/lectures/5-Intro to ES- Assaf/Tools/General Tools/mingw64/bin/../lib/gcc/x86_64-w64-mingw32/6.2.0/../../../../x86_64-w64-mingw32/lib/../lib/libmsvcrt.a(dekes01068.o)
 .data          0x000000000041d170        0x0 D:/ITI/lectures/5-Intro to ES- Assaf/Tools/General Tools/mingw64/bin/../lib/gcc/x86_64-w64-mingw32/6.2.0/../../../../x86_64-w64-mingw32/lib/../lib/libmsvcrt.a(dekes01065.o)
 .data          0x000000000041d170        0x0 D:/ITI/lectures/5-Intro to ES- Assaf/Tools/General Tools/mingw64/bin/../lib/gcc/x86_64-w64-mingw32/6.2.0/../../../../x86_64-w64-mingw32/lib/../lib/libmsvcrt.a(dekes01061.o)
 .data          0x000000000041d170        0x0 D:/ITI/lectures/5-Intro to ES- Assaf/Tools/General Tools/mingw64/bin/../lib/gcc/x86_64-w64-mingw32/6.2.0/../../../../x86_64-w64-mingw32/lib/../lib/libmsvcrt.a(dekes01048.o)
 .data          0x000000000041d170        0x0 D:/ITI/lectures/5-Intro to ES- Assaf/Tools/General Tools/mingw64/bin/../lib/gcc/x86_64-w64-mingw32/6.2.0/../../../../x86_64-w64-mingw32/lib/../lib/libmsvcrt.a(dekes01028.o)
 .data          0x000000000041d170        0x0 D:/ITI/lectures/5-Intro to ES- Assaf/Tools/General Tools/mingw64/bin/../lib/gcc/x86_64-w64-mingw32/6.2.0/../../../../x86_64-w64-mingw32/lib/../lib/libmsvcrt.a(dekes00820.o)
 .data          0x000000000041d170        0x0 D:/ITI/lectures/5-Intro to ES- Assaf/Tools/General Tools/mingw64/bin/../lib/gcc/x86_64-w64-mingw32/6.2.0/../../../../x86_64-w64-mingw32/lib/../lib/libmsvcrt.a(dekes00611.o)
 .data          0x000000000041d170        0x0 D:/ITI/lectures/5-Intro to ES- Assaf/Tools/General Tools/mingw64/bin/../lib/gcc/x86_64-w64-mingw32/6.2.0/../../../../x86_64-w64-mingw32/lib/../lib/libmsvcrt.a(dekes00438.o)
 .data          0x000000000041d170        0x0 D:/ITI/lectures/5-Intro to ES- Assaf/Tools/General Tools/mingw64/bin/../lib/gcc/x86_64-w64-mingw32/6.2.0/../../../../x86_64-w64-mingw32/lib/../lib/libmsvcrt.a(dekes00330.o)
 .data          0x000000000041d170        0x0 D:/ITI/lectures/5-Intro to ES- Assaf/Tools/General Tools/mingw64/bin/../lib/gcc/x86_64-w64-mingw32/6.2.0/../../../../x86_64-w64-mingw32/lib/../lib/libmsvcrt.a(dekes00252.o)
 .data          0x000000000041d170        0x0 D:/ITI/lectures/5-Intro to ES- Assaf/Tools/General Tools/mingw64/bin/../lib/gcc/x86_64-w64-mingw32/6.2.0/../../../../x86_64-w64-mingw32/lib/../lib/libmsvcrt.a(dekes00141.o)
 .data          0x000000000041d170        0x0 D:/ITI/lectures/5-Intro to ES- Assaf/Tools/General Tools/mingw64/bin/../lib/gcc/x86_64-w64-mingw32/6.2.0/../../../../x86_64-w64-mingw32/lib/../lib/libmsvcrt.a(dekes00123.o)
 .data          0x000000000041d170        0x0 D:/ITI/lectures/5-Intro to ES- Assaf/Tools/General Tools/mingw64/bin/../lib/gcc/x86_64-w64-mingw32/6.2.0/../../../../x86_64-w64-mingw32/lib/../lib/libmsvcrt.a(dekes00116.o)
 .data          0x000000000041d170        0x0 D:/ITI/lectures/5-Intro to ES- Assaf/Tools/General Tools/mingw64/bin/../lib/gcc/x86_64-w64-mingw32/6.2.0/../../../../x86_64-w64-mingw32/lib/../lib/libmsvcrt.a(dekes00099.o)
 .data          0x000000000041d170        0x0 D:/ITI/lectures/5-Intro to ES- Assaf/Tools/General Tools/mingw64/bin/../lib/gcc/x86_64-w64-mingw32/6.2.0/../../../../x86_64-w64-mingw32/lib/../lib/libmsvcrt.a(dekes00097.o)
 .data          0x000000000041d170        0x0 D:/ITI/lectures/5-Intro to ES- Assaf/Tools/General Tools/mingw64/bin/../lib/gcc/x86_64-w64-mingw32/6.2.0/../../../../x86_64-w64-mingw32/lib/../lib/libmsvcrt.a(dekes00091.o)
 .data          0x000000000041d170        0x0 D:/ITI/lectures/5-Intro to ES- Assaf/Tools/General Tools/mingw64/bin/../lib/gcc/x86_64-w64-mingw32/6.2.0/../../../../x86_64-w64-mingw32/lib/../lib/libmsvcrt.a(dekes00083.o)
 .data          0x000000000041d170        0x0 D:/ITI/lectures/5-Intro to ES- Assaf/Tools/General Tools/mingw64/bin/../lib/gcc/x86_64-w64-mingw32/6.2.0/../../../../x86_64-w64-mingw32/lib/../lib/libmsvcrt.a(dekes00082.o)
 .data          0x000000000041d170        0x0 D:/ITI/lectures/5-Intro to ES- Assaf/Tools/General Tools/mingw64/bin/../lib/gcc/x86_64-w64-mingw32/6.2.0/../../../../x86_64-w64-mingw32/lib/../lib/libmsvcrt.a(dekes00081.o)
 .data          0x000000000041d170        0x0 D:/ITI/lectures/5-Intro to ES- Assaf/Tools/General Tools/mingw64/bin/../lib/gcc/x86_64-w64-mingw32/6.2.0/../../../../x86_64-w64-mingw32/lib/../lib/libmsvcrt.a(dekes00078.o)
 .data          0x000000000041d170        0x0 D:/ITI/lectures/5-Intro to ES- Assaf/Tools/General Tools/mingw64/bin/../lib/gcc/x86_64-w64-mingw32/6.2.0/../../../../x86_64-w64-mingw32/lib/../lib/libmsvcrt.a(dekes00055.o)
 .data          0x000000000041d170       0x10 D:/ITI/lectures/5-Intro to ES- Assaf/Tools/General Tools/mingw64/bin/../lib/gcc/x86_64-w64-mingw32/6.2.0/../../../../x86_64-w64-mingw32/lib/../lib/libmsvcrt.a(lib64_libmsvcrt_a-invalid_parameter_handler.o)
                0x000000000041d170                __imp__get_invalid_parameter_handler
                0x000000000041d178                __imp__set_invalid_parameter_handler
 .data          0x000000000041d180        0x0 D:/ITI/lectures/5-Intro to ES- Assaf/Tools/General Tools/mingw64/bin/../lib/gcc/x86_64-w64-mingw32/6.2.0/../../../../x86_64-w64-mingw32/lib/../lib/libmsvcrt.a(dekeh.o)
 .data          0x000000000041d180        0x0 D:/ITI/lectures/5-Intro to ES- Assaf/Tools/General Tools/mingw64/bin/../lib/gcc/x86_64-w64-mingw32/6.2.0/../../../../x86_64-w64-mingw32/lib/../lib/libmsvcrt.a(deket.o)
 .data          0x000000000041d180        0x0 D:/ITI/lectures/5-Intro to ES- Assaf/Tools/General Tools/mingw64/bin/../lib/gcc/x86_64-w64-mingw32/6.2.0/../../../../x86_64-w64-mingw32/lib/../lib/libkernel32.a(dmmds01274.o)
 .data          0x000000000041d180        0x0 D:/ITI/lectures/5-Intro to ES- Assaf/Tools/General Tools/mingw64/bin/../lib/gcc/x86_64-w64-mingw32/6.2.0/../../../../x86_64-w64-mingw32/lib/../lib/libkernel32.a(dmmds01272.o)
 .data          0x000000000041d180        0x0 D:/ITI/lectures/5-Intro to ES- Assaf/Tools/General Tools/mingw64/bin/../lib/gcc/x86_64-w64-mingw32/6.2.0/../../../../x86_64-w64-mingw32/lib/../lib/libkernel32.a(dmmds01266.o)
 .data          0x000000000041d180        0x0 D:/ITI/lectures/5-Intro to ES- Assaf/Tools/General Tools/mingw64/bin/../lib/gcc/x86_64-w64-mingw32/6.2.0/../../../../x86_64-w64-mingw32/lib/../lib/libkernel32.a(dmmds01264.o)
 .data          0x000000000041d180        0x0 D:/ITI/lectures/5-Intro to ES- Assaf/Tools/General Tools/mingw64/bin/../lib/gcc/x86_64-w64-mingw32/6.2.0/../../../../x86_64-w64-mingw32/lib/../lib/libkernel32.a(dmmds01234.o)
 .data          0x000000000041d180        0x0 D:/ITI/lectures/5-Intro to ES- Assaf/Tools/General Tools/mingw64/bin/../lib/gcc/x86_64-w64-mingw32/6.2.0/../../../../x86_64-w64-mingw32/lib/../lib/libkernel32.a(dmmds01221.o)
 .data          0x000000000041d180        0x0 D:/ITI/lectures/5-Intro to ES- Assaf/Tools/General Tools/mingw64/bin/../lib/gcc/x86_64-w64-mingw32/6.2.0/../../../../x86_64-w64-mingw32/lib/../lib/libkernel32.a(dmmds01215.o)
 .data          0x000000000041d180        0x0 D:/ITI/lectures/5-Intro to ES- Assaf/Tools/General Tools/mingw64/bin/../lib/gcc/x86_64-w64-mingw32/6.2.0/../../../../x86_64-w64-mingw32/lib/../lib/libkernel32.a(dmmds01214.o)
 .data          0x000000000041d180        0x0 D:/ITI/lectures/5-Intro to ES- Assaf/Tools/General Tools/mingw64/bin/../lib/gcc/x86_64-w64-mingw32/6.2.0/../../../../x86_64-w64-mingw32/lib/../lib/libkernel32.a(dmmds01208.o)
 .data          0x000000000041d180        0x0 D:/ITI/lectures/5-Intro to ES- Assaf/Tools/General Tools/mingw64/bin/../lib/gcc/x86_64-w64-mingw32/6.2.0/../../../../x86_64-w64-mingw32/lib/../lib/libkernel32.a(dmmds01200.o)
 .data          0x000000000041d180        0x0 D:/ITI/lectures/5-Intro to ES- Assaf/Tools/General Tools/mingw64/bin/../lib/gcc/x86_64-w64-mingw32/6.2.0/../../../../x86_64-w64-mingw32/lib/../lib/libkernel32.a(dmmds01187.o)
 .data          0x000000000041d180        0x0 D:/ITI/lectures/5-Intro to ES- Assaf/Tools/General Tools/mingw64/bin/../lib/gcc/x86_64-w64-mingw32/6.2.0/../../../../x86_64-w64-mingw32/lib/../lib/libkernel32.a(dmmds01175.o)
 .data          0x000000000041d180        0x0 D:/ITI/lectures/5-Intro to ES- Assaf/Tools/General Tools/mingw64/bin/../lib/gcc/x86_64-w64-mingw32/6.2.0/../../../../x86_64-w64-mingw32/lib/../lib/libkernel32.a(dmmds01174.o)
 .data          0x000000000041d180        0x0 D:/ITI/lectures/5-Intro to ES- Assaf/Tools/General Tools/mingw64/bin/../lib/gcc/x86_64-w64-mingw32/6.2.0/../../../../x86_64-w64-mingw32/lib/../lib/libkernel32.a(dmmds01165.o)
 .data          0x000000000041d180        0x0 D:/ITI/lectures/5-Intro to ES- Assaf/Tools/General Tools/mingw64/bin/../lib/gcc/x86_64-w64-mingw32/6.2.0/../../../../x86_64-w64-mingw32/lib/../lib/libkernel32.a(dmmds01146.o)
 .data          0x000000000041d180        0x0 D:/ITI/lectures/5-Intro to ES- Assaf/Tools/General Tools/mingw64/bin/../lib/gcc/x86_64-w64-mingw32/6.2.0/../../../../x86_64-w64-mingw32/lib/../lib/libkernel32.a(dmmds01111.o)
 .data          0x000000000041d180        0x0 D:/ITI/lectures/5-Intro to ES- Assaf/Tools/General Tools/mingw64/bin/../lib/gcc/x86_64-w64-mingw32/6.2.0/../../../../x86_64-w64-mingw32/lib/../lib/libkernel32.a(dmmds01067.o)
 .data          0x000000000041d180        0x0 D:/ITI/lectures/5-Intro to ES- Assaf/Tools/General Tools/mingw64/bin/../lib/gcc/x86_64-w64-mingw32/6.2.0/../../../../x86_64-w64-mingw32/lib/../lib/libkernel32.a(dmmds01044.o)
 .data          0x000000000041d180        0x0 D:/ITI/lectures/5-Intro to ES- Assaf/Tools/General Tools/mingw64/bin/../lib/gcc/x86_64-w64-mingw32/6.2.0/../../../../x86_64-w64-mingw32/lib/../lib/libkernel32.a(dmmds01037.o)
 .data          0x000000000041d180        0x0 D:/ITI/lectures/5-Intro to ES- Assaf/Tools/General Tools/mingw64/bin/../lib/gcc/x86_64-w64-mingw32/6.2.0/../../../../x86_64-w64-mingw32/lib/../lib/libkernel32.a(dmmds01030.o)
 .data          0x000000000041d180        0x0 D:/ITI/lectures/5-Intro to ES- Assaf/Tools/General Tools/mingw64/bin/../lib/gcc/x86_64-w64-mingw32/6.2.0/../../../../x86_64-w64-mingw32/lib/../lib/libkernel32.a(dmmds01029.o)
 .data          0x000000000041d180        0x0 D:/ITI/lectures/5-Intro to ES- Assaf/Tools/General Tools/mingw64/bin/../lib/gcc/x86_64-w64-mingw32/6.2.0/../../../../x86_64-w64-mingw32/lib/../lib/libkernel32.a(dmmds01028.o)
 .data          0x000000000041d180        0x0 D:/ITI/lectures/5-Intro to ES- Assaf/Tools/General Tools/mingw64/bin/../lib/gcc/x86_64-w64-mingw32/6.2.0/../../../../x86_64-w64-mingw32/lib/../lib/libkernel32.a(dmmds01024.o)
 .data          0x000000000041d180        0x0 D:/ITI/lectures/5-Intro to ES- Assaf/Tools/General Tools/mingw64/bin/../lib/gcc/x86_64-w64-mingw32/6.2.0/../../../../x86_64-w64-mingw32/lib/../lib/libkernel32.a(dmmds01003.o)
 .data          0x000000000041d180        0x0 D:/ITI/lectures/5-Intro to ES- Assaf/Tools/General Tools/mingw64/bin/../lib/gcc/x86_64-w64-mingw32/6.2.0/../../../../x86_64-w64-mingw32/lib/../lib/libkernel32.a(dmmds00959.o)
 .data          0x000000000041d180        0x0 D:/ITI/lectures/5-Intro to ES- Assaf/Tools/General Tools/mingw64/bin/../lib/gcc/x86_64-w64-mingw32/6.2.0/../../../../x86_64-w64-mingw32/lib/../lib/libkernel32.a(dmmds00958.o)
 .data          0x000000000041d180        0x0 D:/ITI/lectures/5-Intro to ES- Assaf/Tools/General Tools/mingw64/bin/../lib/gcc/x86_64-w64-mingw32/6.2.0/../../../../x86_64-w64-mingw32/lib/../lib/libkernel32.a(dmmds00844.o)
 .data          0x000000000041d180        0x0 D:/ITI/lectures/5-Intro to ES- Assaf/Tools/General Tools/mingw64/bin/../lib/gcc/x86_64-w64-mingw32/6.2.0/../../../../x86_64-w64-mingw32/lib/../lib/libkernel32.a(dmmds00762.o)
 .data          0x000000000041d180        0x0 D:/ITI/lectures/5-Intro to ES- Assaf/Tools/General Tools/mingw64/bin/../lib/gcc/x86_64-w64-mingw32/6.2.0/../../../../x86_64-w64-mingw32/lib/../lib/libkernel32.a(dmmds00678.o)
 .data          0x000000000041d180        0x0 D:/ITI/lectures/5-Intro to ES- Assaf/Tools/General Tools/mingw64/bin/../lib/gcc/x86_64-w64-mingw32/6.2.0/../../../../x86_64-w64-mingw32/lib/../lib/libkernel32.a(dmmds00665.o)
 .data          0x000000000041d180        0x0 D:/ITI/lectures/5-Intro to ES- Assaf/Tools/General Tools/mingw64/bin/../lib/gcc/x86_64-w64-mingw32/6.2.0/../../../../x86_64-w64-mingw32/lib/../lib/libkernel32.a(dmmds00651.o)
 .data          0x000000000041d180        0x0 D:/ITI/lectures/5-Intro to ES- Assaf/Tools/General Tools/mingw64/bin/../lib/gcc/x86_64-w64-mingw32/6.2.0/../../../../x86_64-w64-mingw32/lib/../lib/libkernel32.a(dmmds00645.o)
 .data          0x000000000041d180        0x0 D:/ITI/lectures/5-Intro to ES- Assaf/Tools/General Tools/mingw64/bin/../lib/gcc/x86_64-w64-mingw32/6.2.0/../../../../x86_64-w64-mingw32/lib/../lib/libkernel32.a(dmmds00628.o)
 .data          0x000000000041d180        0x0 D:/ITI/lectures/5-Intro to ES- Assaf/Tools/General Tools/mingw64/bin/../lib/gcc/x86_64-w64-mingw32/6.2.0/../../../../x86_64-w64-mingw32/lib/../lib/libkernel32.a(dmmds00599.o)
 .data          0x000000000041d180        0x0 D:/ITI/lectures/5-Intro to ES- Assaf/Tools/General Tools/mingw64/bin/../lib/gcc/x86_64-w64-mingw32/6.2.0/../../../../x86_64-w64-mingw32/lib/../lib/libkernel32.a(dmmds00549.o)
 .data          0x000000000041d180        0x0 D:/ITI/lectures/5-Intro to ES- Assaf/Tools/General Tools/mingw64/bin/../lib/gcc/x86_64-w64-mingw32/6.2.0/../../../../x86_64-w64-mingw32/lib/../lib/libkernel32.a(dmmds00529.o)
 .data          0x000000000041d180        0x0 D:/ITI/lectures/5-Intro to ES- Assaf/Tools/General Tools/mingw64/bin/../lib/gcc/x86_64-w64-mingw32/6.2.0/../../../../x86_64-w64-mingw32/lib/../lib/libkernel32.a(dmmds00467.o)
 .data          0x000000000041d180        0x0 D:/ITI/lectures/5-Intro to ES- Assaf/Tools/General Tools/mingw64/bin/../lib/gcc/x86_64-w64-mingw32/6.2.0/../../../../x86_64-w64-mingw32/lib/../lib/libkernel32.a(dmmds00466.o)
 .data          0x000000000041d180        0x0 D:/ITI/lectures/5-Intro to ES- Assaf/Tools/General Tools/mingw64/bin/../lib/gcc/x86_64-w64-mingw32/6.2.0/../../../../x86_64-w64-mingw32/lib/../lib/libkernel32.a(dmmds00463.o)
 .data          0x000000000041d180        0x0 D:/ITI/lectures/5-Intro to ES- Assaf/Tools/General Tools/mingw64/bin/../lib/gcc/x86_64-w64-mingw32/6.2.0/../../../../x86_64-w64-mingw32/lib/../lib/libkernel32.a(dmmds00462.o)
 .data          0x000000000041d180        0x0 D:/ITI/lectures/5-Intro to ES- Assaf/Tools/General Tools/mingw64/bin/../lib/gcc/x86_64-w64-mingw32/6.2.0/../../../../x86_64-w64-mingw32/lib/../lib/libkernel32.a(dmmds00295.o)
 .data          0x000000000041d180        0x0 D:/ITI/lectures/5-Intro to ES- Assaf/Tools/General Tools/mingw64/bin/../lib/gcc/x86_64-w64-mingw32/6.2.0/../../../../x86_64-w64-mingw32/lib/../lib/libkernel32.a(dmmds00249.o)
 .data          0x000000000041d180        0x0 D:/ITI/lectures/5-Intro to ES- Assaf/Tools/General Tools/mingw64/bin/../lib/gcc/x86_64-w64-mingw32/6.2.0/../../../../x86_64-w64-mingw32/lib/../lib/libkernel32.a(dmmds00216.o)
 .data          0x000000000041d180        0x0 D:/ITI/lectures/5-Intro to ES- Assaf/Tools/General Tools/mingw64/bin/../lib/gcc/x86_64-w64-mingw32/6.2.0/../../../../x86_64-w64-mingw32/lib/../lib/libkernel32.a(dmmds00186.o)
 .data          0x000000000041d180        0x0 D:/ITI/lectures/5-Intro to ES- Assaf/Tools/General Tools/mingw64/bin/../lib/gcc/x86_64-w64-mingw32/6.2.0/../../../../x86_64-w64-mingw32/lib/../lib/libkernel32.a(dmmds00160.o)
 .data          0x000000000041d180        0x0 D:/ITI/lectures/5-Intro to ES- Assaf/Tools/General Tools/mingw64/bin/../lib/gcc/x86_64-w64-mingw32/6.2.0/../../../../x86_64-w64-mingw32/lib/../lib/libkernel32.a(dmmds00134.o)
 .data          0x000000000041d180        0x0 D:/ITI/lectures/5-Intro to ES- Assaf/Tools/General Tools/mingw64/bin/../lib/gcc/x86_64-w64-mingw32/6.2.0/../../../../x86_64-w64-mingw32/lib/../lib/libkernel32.a(dmmds00085.o)
 .data          0x000000000041d180        0x0 D:/ITI/lectures/5-Intro to ES- Assaf/Tools/General Tools/mingw64/bin/../lib/gcc/x86_64-w64-mingw32/6.2.0/../../../../x86_64-w64-mingw32/lib/../lib/libkernel32.a(dmmdh.o)
 .data          0x000000000041d180        0x0 D:/ITI/lectures/5-Intro to ES- Assaf/Tools/General Tools/mingw64/bin/../lib/gcc/x86_64-w64-mingw32/6.2.0/../../../../x86_64-w64-mingw32/lib/../lib/libkernel32.a(dmmdt.o)
 .data          0x000000000041d180        0x0 D:/ITI/lectures/5-Intro to ES- Assaf/Tools/General Tools/mingw64/bin/../lib/gcc/x86_64-w64-mingw32/6.2.0/crtend.o
 *(.data2)
 *(SORT(.data$*))
 .data$__security_cookie
                0x000000000041d180       0x10 D:/ITI/lectures/5-Intro to ES- Assaf/Tools/General Tools/mingw64/bin/../lib/gcc/x86_64-w64-mingw32/6.2.0/../../../../x86_64-w64-mingw32/lib/../lib/libmingw32.a(lib64_libmingw32_a-gs_support.o)
                0x000000000041d180                __security_cookie
 .data$__security_cookie_complement
                0x000000000041d190       0x10 D:/ITI/lectures/5-Intro to ES- Assaf/Tools/General Tools/mingw64/bin/../lib/gcc/x86_64-w64-mingw32/6.2.0/../../../../x86_64-w64-mingw32/lib/../lib/libmingw32.a(lib64_libmingw32_a-gs_support.o)
                0x000000000041d190                __security_cookie_complement
 *(.jcr)
 .jcr           0x000000000041d1a0        0x0 D:/ITI/lectures/5-Intro to ES- Assaf/Tools/General Tools/mingw64/bin/../lib/gcc/x86_64-w64-mingw32/6.2.0/crtbegin.o
 .jcr           0x000000000041d1a0        0x8 D:/ITI/lectures/5-Intro to ES- Assaf/Tools/General Tools/mingw64/bin/../lib/gcc/x86_64-w64-mingw32/6.2.0/crtend.o
                0x000000000041d1a8                __data_end__ = .
 *(.data_cygwin_nocopy)

.rdata          0x000000000041e000     0x2600
 *(.rdata)
 .rdata         0x000000000041e000       0x30 D:/ITI/lectures/5-Intro to ES- Assaf/Tools/General Tools/mingw64/bin/../lib/gcc/x86_64-w64-mingw32/6.2.0/crtbegin.o
 .rdata         0x000000000041e030       0x30 DemosModifiedForLowTickRate\recmutex.o
 .rdata         0x000000000041e060       0x20 FreeRTOS_Source\event_groups.o
 .rdata         0x000000000041e080       0xa0 FreeRTOS_Source\portable\MSVC-MingW\port.o
 .rdata         0x000000000041e120       0x40 FreeRTOS_Source\portable\MemMang\heap_5.o
 .rdata         0x000000000041e160       0x20 FreeRTOS_Source\queue.o
 .rdata         0x000000000041e180       0x20 FreeRTOS_Source\stream_buffer.o
 .rdata         0x000000000041e1a0       0x50 FreeRTOS_Source\tasks.o
 .rdata         0x000000000041e1f0       0x60 FreeRTOS_Source\timers.o
 .rdata         0x000000000041e250       0x50 MyTask.o
 .rdata         0x000000000041e2a0       0x70 Standard_Demo_Tasks\AbortDelay.o
                0x000000000041e2b0                xMaxBlockTime
                0x000000000041e2b4                xHalfMaxBlockTime
                0x000000000041e2b8                xAllowableMargin
 .rdata         0x000000000041e310       0x30 Standard_Demo_Tasks\BlockQ.o
 .rdata         0x000000000041e340       0x40 Standard_Demo_Tasks\EventGroupsDemo.o
 .rdata         0x000000000041e380       0x60 Standard_Demo_Tasks\GenQTest.o
 .rdata         0x000000000041e3e0       0x40 Standard_Demo_Tasks\IntSemTest.o
                0x000000000041e3e0                xInterruptGivePeriod
 .rdata         0x000000000041e420       0x50 Standard_Demo_Tasks\MessageBufferAMP.o
 .rdata         0x000000000041e470       0xc0 Standard_Demo_Tasks\MessageBufferDemo.o
 .rdata         0x000000000041e530       0x20 Standard_Demo_Tasks\PollQ.o
 .rdata         0x000000000041e550       0x30 Standard_Demo_Tasks\QPeek.o
 .rdata         0x000000000041e580       0x30 Standard_Demo_Tasks\QueueOverwrite.o
 .rdata         0x000000000041e5b0       0x30 Standard_Demo_Tasks\QueueSet.o
 .rdata         0x000000000041e5e0       0x10 Standard_Demo_Tasks\QueueSetPolling.o
 .rdata         0x000000000041e5f0       0x50 Standard_Demo_Tasks\StaticAllocation.o
 .rdata         0x000000000041e640      0x120 Standard_Demo_Tasks\StreamBufferDemo.o
 .rdata         0x000000000041e760       0x70 Standard_Demo_Tasks\StreamBufferInterrupt.o
 .rdata         0x000000000041e7d0       0x50 Standard_Demo_Tasks\TaskNotify.o
 .rdata         0x000000000041e820       0x50 Standard_Demo_Tasks\TimerDemo.o
 .rdata         0x000000000041e870       0x20 Standard_Demo_Tasks\blocktim.o
 .rdata         0x000000000041e890       0x50 Standard_Demo_Tasks\countsem.o
 .rdata         0x000000000041e8e0       0x20 Standard_Demo_Tasks\death.o
 .rdata         0x000000000041e900       0x60 Standard_Demo_Tasks\dynamic.o
 .rdata         0x000000000041e960       0x70 Standard_Demo_Tasks\flop.o
 .rdata         0x000000000041e9d0       0x10 Standard_Demo_Tasks\integer.o
 .rdata         0x000000000041e9e0       0x40 Standard_Demo_Tasks\semtest.o
 .rdata         0x000000000041ea20       0x30 code_coverage_additions.o
 .rdata         0x000000000041ea50      0x120 main.o
 .rdata         0x000000000041eb70       0x70 main_blinky.o
 .rdata         0x000000000041ebe0      0x510 main_full.o
 .rdata         0x000000000041f0f0       0x10 D:/ITI/lectures/5-Intro to ES- Assaf/Tools/General Tools/mingw64/bin/../lib/gcc/x86_64-w64-mingw32/6.2.0/../../../../x86_64-w64-mingw32/lib/../lib/libmingw32.a(lib64_libmingw32_a-gs_support.o)
 .rdata         0x000000000041f100       0x10 D:/ITI/lectures/5-Intro to ES- Assaf/Tools/General Tools/mingw64/bin/../lib/gcc/x86_64-w64-mingw32/6.2.0/../../../../x86_64-w64-mingw32/lib/../lib/libmingw32.a(lib64_libmingw32_a-tlssup.o)
                0x000000000041f100                __dyn_tls_init_callback
 .rdata         0x000000000041f110      0x140 D:/ITI/lectures/5-Intro to ES- Assaf/Tools/General Tools/mingw64/bin/../lib/gcc/x86_64-w64-mingw32/6.2.0/../../../../x86_64-w64-mingw32/lib/../lib/libmingw32.a(lib64_libmingw32_a-merr.o)
 .rdata         0x000000000041f250      0x110 D:/ITI/lectures/5-Intro to ES- Assaf/Tools/General Tools/mingw64/bin/../lib/gcc/x86_64-w64-mingw32/6.2.0/../../../../x86_64-w64-mingw32/lib/../lib/libmingw32.a(lib64_libmingw32_a-pseudo-reloc.o)
 .rdata         0x000000000041f360       0x10 D:/ITI/lectures/5-Intro to ES- Assaf/Tools/General Tools/mingw64/bin/../lib/gcc/x86_64-w64-mingw32/6.2.0/../../../../x86_64-w64-mingw32/lib/../lib/libmingw32.a(lib64_libmingw32_a-crt_handler.o)
 *(SORT(.rdata$*))
 .rdata$.refptr._CRT_MT
                0x000000000041f370       0x10 D:/ITI/lectures/5-Intro to ES- Assaf/Tools/General Tools/mingw64/bin/../lib/gcc/x86_64-w64-mingw32/6.2.0/../../../../x86_64-w64-mingw32/lib/../lib/libmingw32.a(lib64_libmingw32_a-tlssup.o)
                0x000000000041f370                .refptr._CRT_MT
 .rdata$.refptr._MINGW_INSTALL_DEBUG_MATHERR
                0x000000000041f380       0x10 D:/ITI/lectures/5-Intro to ES- Assaf/Tools/General Tools/mingw64/bin/../lib/gcc/x86_64-w64-mingw32/6.2.0/../../../../x86_64-w64-mingw32/lib/../lib/crt2.o
                0x000000000041f380                .refptr._MINGW_INSTALL_DEBUG_MATHERR
 .rdata$.refptr.__CTOR_LIST__
                0x000000000041f390       0x10 D:/ITI/lectures/5-Intro to ES- Assaf/Tools/General Tools/mingw64/bin/../lib/gcc/x86_64-w64-mingw32/6.2.0/../../../../x86_64-w64-mingw32/lib/../lib/libmingw32.a(lib64_libmingw32_a-gccmain.o)
                0x000000000041f390                .refptr.__CTOR_LIST__
 .rdata$.refptr.__RUNTIME_PSEUDO_RELOC_LIST_END__
                0x000000000041f3a0       0x10 D:/ITI/lectures/5-Intro to ES- Assaf/Tools/General Tools/mingw64/bin/../lib/gcc/x86_64-w64-mingw32/6.2.0/../../../../x86_64-w64-mingw32/lib/../lib/libmingw32.a(lib64_libmingw32_a-pseudo-reloc.o)
                0x000000000041f3a0                .refptr.__RUNTIME_PSEUDO_RELOC_LIST_END__
 .rdata$.refptr.__RUNTIME_PSEUDO_RELOC_LIST__
                0x000000000041f3b0       0x10 D:/ITI/lectures/5-Intro to ES- Assaf/Tools/General Tools/mingw64/bin/../lib/gcc/x86_64-w64-mingw32/6.2.0/../../../../x86_64-w64-mingw32/lib/../lib/libmingw32.a(lib64_libmingw32_a-pseudo-reloc.o)
                0x000000000041f3b0                .refptr.__RUNTIME_PSEUDO_RELOC_LIST__
 .rdata$.refptr.__dyn_tls_init_callback
                0x000000000041f3c0       0x10 D:/ITI/lectures/5-Intro to ES- Assaf/Tools/General Tools/mingw64/bin/../lib/gcc/x86_64-w64-mingw32/6.2.0/../../../../x86_64-w64-mingw32/lib/../lib/crt2.o
                0x000000000041f3c0                .refptr.__dyn_tls_init_callback
 .rdata$.refptr.__image_base__
                0x000000000041f3d0       0x10 D:/ITI/lectures/5-Intro to ES- Assaf/Tools/General Tools/mingw64/bin/../lib/gcc/x86_64-w64-mingw32/6.2.0/../../../../x86_64-w64-mingw32/lib/../lib/crt2.o
                0x000000000041f3d0                .refptr.__image_base__
 .rdata$.refptr.__imp___initenv
                0x000000000041f3e0       0x10 D:/ITI/lectures/5-Intro to ES- Assaf/Tools/General Tools/mingw64/bin/../lib/gcc/x86_64-w64-mingw32/6.2.0/../../../../x86_64-w64-mingw32/lib/../lib/crt2.o
                0x000000000041f3e0                .refptr.__imp___initenv
 .rdata$.refptr.__imp__acmdln
                0x000000000041f3f0       0x10 D:/ITI/lectures/5-Intro to ES- Assaf/Tools/General Tools/mingw64/bin/../lib/gcc/x86_64-w64-mingw32/6.2.0/../../../../x86_64-w64-mingw32/lib/../lib/crt2.o
                0x000000000041f3f0                .refptr.__imp__acmdln
 .rdata$.refptr.__imp__fmode
                0x000000000041f400       0x10 D:/ITI/lectures/5-Intro to ES- Assaf/Tools/General Tools/mingw64/bin/../lib/gcc/x86_64-w64-mingw32/6.2.0/../../../../x86_64-w64-mingw32/lib/../lib/crt2.o
                0x000000000041f400                .refptr.__imp__fmode
 .rdata$.refptr.__imp__onexit
                0x000000000041f410       0x10 D:/ITI/lectures/5-Intro to ES- Assaf/Tools/General Tools/mingw64/bin/../lib/gcc/x86_64-w64-mingw32/6.2.0/../../../../x86_64-w64-mingw32/lib/../lib/libmingw32.a(lib64_libmingw32_a-atonexit.o)
                0x000000000041f410                .refptr.__imp__onexit
 .rdata$.refptr.__mingw_oldexcpt_handler
                0x000000000041f420       0x10 D:/ITI/lectures/5-Intro to ES- Assaf/Tools/General Tools/mingw64/bin/../lib/gcc/x86_64-w64-mingw32/6.2.0/../../../../x86_64-w64-mingw32/lib/../lib/crt2.o
                0x000000000041f420                .refptr.__mingw_oldexcpt_handler
 .rdata$.refptr.__native_startup_lock
                0x000000000041f430       0x10 D:/ITI/lectures/5-Intro to ES- Assaf/Tools/General Tools/mingw64/bin/../lib/gcc/x86_64-w64-mingw32/6.2.0/../../../../x86_64-w64-mingw32/lib/../lib/crt2.o
                0x000000000041f430                .refptr.__native_startup_lock
 .rdata$.refptr.__native_startup_state
                0x000000000041f440       0x10 D:/ITI/lectures/5-Intro to ES- Assaf/Tools/General Tools/mingw64/bin/../lib/gcc/x86_64-w64-mingw32/6.2.0/../../../../x86_64-w64-mingw32/lib/../lib/crt2.o
                0x000000000041f440                .refptr.__native_startup_state
 .rdata$.refptr.__onexitbegin
                0x000000000041f450       0x10 D:/ITI/lectures/5-Intro to ES- Assaf/Tools/General Tools/mingw64/bin/../lib/gcc/x86_64-w64-mingw32/6.2.0/../../../../x86_64-w64-mingw32/lib/../lib/crt2.o
                0x000000000041f450                .refptr.__onexitbegin
 .rdata$.refptr.__onexitend
                0x000000000041f460       0x10 D:/ITI/lectures/5-Intro to ES- Assaf/Tools/General Tools/mingw64/bin/../lib/gcc/x86_64-w64-mingw32/6.2.0/../../../../x86_64-w64-mingw32/lib/../lib/crt2.o
                0x000000000041f460                .refptr.__onexitend
 .rdata$.refptr.__xc_a
                0x000000000041f470       0x10 D:/ITI/lectures/5-Intro to ES- Assaf/Tools/General Tools/mingw64/bin/../lib/gcc/x86_64-w64-mingw32/6.2.0/../../../../x86_64-w64-mingw32/lib/../lib/crt2.o
                0x000000000041f470                .refptr.__xc_a
 .rdata$.refptr.__xc_z
                0x000000000041f480       0x10 D:/ITI/lectures/5-Intro to ES- Assaf/Tools/General Tools/mingw64/bin/../lib/gcc/x86_64-w64-mingw32/6.2.0/../../../../x86_64-w64-mingw32/lib/../lib/crt2.o
                0x000000000041f480                .refptr.__xc_z
 .rdata$.refptr.__xi_a
                0x000000000041f490       0x10 D:/ITI/lectures/5-Intro to ES- Assaf/Tools/General Tools/mingw64/bin/../lib/gcc/x86_64-w64-mingw32/6.2.0/../../../../x86_64-w64-mingw32/lib/../lib/crt2.o
                0x000000000041f490                .refptr.__xi_a
 .rdata$.refptr.__xi_z
                0x000000000041f4a0       0x10 D:/ITI/lectures/5-Intro to ES- Assaf/Tools/General Tools/mingw64/bin/../lib/gcc/x86_64-w64-mingw32/6.2.0/../../../../x86_64-w64-mingw32/lib/../lib/crt2.o
                0x000000000041f4a0                .refptr.__xi_z
 .rdata$.refptr._dowildcard
                0x000000000041f4b0       0x10 D:/ITI/lectures/5-Intro to ES- Assaf/Tools/General Tools/mingw64/bin/../lib/gcc/x86_64-w64-mingw32/6.2.0/../../../../x86_64-w64-mingw32/lib/../lib/crt2.o
                0x000000000041f4b0                .refptr._dowildcard
 .rdata$.refptr._fmode
                0x000000000041f4c0       0x10 D:/ITI/lectures/5-Intro to ES- Assaf/Tools/General Tools/mingw64/bin/../lib/gcc/x86_64-w64-mingw32/6.2.0/../../../../x86_64-w64-mingw32/lib/../lib/crt2.o
                0x000000000041f4c0                .refptr._fmode
 .rdata$.refptr._gnu_exception_handler
                0x000000000041f4d0       0x10 D:/ITI/lectures/5-Intro to ES- Assaf/Tools/General Tools/mingw64/bin/../lib/gcc/x86_64-w64-mingw32/6.2.0/../../../../x86_64-w64-mingw32/lib/../lib/crt2.o
                0x000000000041f4d0                .refptr._gnu_exception_handler
 .rdata$.refptr._matherr
                0x000000000041f4e0       0x10 D:/ITI/lectures/5-Intro to ES- Assaf/Tools/General Tools/mingw64/bin/../lib/gcc/x86_64-w64-mingw32/6.2.0/../../../../x86_64-w64-mingw32/lib/../lib/crt2.o
                0x000000000041f4e0                .refptr._matherr
 .rdata$.refptr._newmode
                0x000000000041f4f0       0x10 D:/ITI/lectures/5-Intro to ES- Assaf/Tools/General Tools/mingw64/bin/../lib/gcc/x86_64-w64-mingw32/6.2.0/../../../../x86_64-w64-mingw32/lib/../lib/crt2.o
                0x000000000041f4f0                .refptr._newmode
 .rdata$.refptr.mingw_app_type
                0x000000000041f500       0x10 D:/ITI/lectures/5-Intro to ES- Assaf/Tools/General Tools/mingw64/bin/../lib/gcc/x86_64-w64-mingw32/6.2.0/../../../../x86_64-w64-mingw32/lib/../lib/crt2.o
                0x000000000041f500                .refptr.mingw_app_type
 .rdata$.refptr.mingw_initcharmax
                0x000000000041f510       0x10 D:/ITI/lectures/5-Intro to ES- Assaf/Tools/General Tools/mingw64/bin/../lib/gcc/x86_64-w64-mingw32/6.2.0/../../../../x86_64-w64-mingw32/lib/../lib/crt2.o
                0x000000000041f510                .refptr.mingw_initcharmax
 .rdata$.refptr.mingw_initltsdrot_force
                0x000000000041f520       0x10 D:/ITI/lectures/5-Intro to ES- Assaf/Tools/General Tools/mingw64/bin/../lib/gcc/x86_64-w64-mingw32/6.2.0/../../../../x86_64-w64-mingw32/lib/../lib/crt2.o
                0x000000000041f520                .refptr.mingw_initltsdrot_force
 .rdata$.refptr.mingw_initltsdyn_force
                0x000000000041f530       0x10 D:/ITI/lectures/5-Intro to ES- Assaf/Tools/General Tools/mingw64/bin/../lib/gcc/x86_64-w64-mingw32/6.2.0/../../../../x86_64-w64-mingw32/lib/../lib/crt2.o
                0x000000000041f530                .refptr.mingw_initltsdyn_force
 .rdata$.refptr.mingw_initltssuo_force
                0x000000000041f540       0x10 D:/ITI/lectures/5-Intro to ES- Assaf/Tools/General Tools/mingw64/bin/../lib/gcc/x86_64-w64-mingw32/6.2.0/../../../../x86_64-w64-mingw32/lib/../lib/crt2.o
                0x000000000041f540                .refptr.mingw_initltssuo_force
 .rdata$.refptr.pxCurrentTCB
                0x000000000041f550       0x10 FreeRTOS_Source\portable\MSVC-MingW\port.o
                0x000000000041f550                .refptr.pxCurrentTCB
 .rdata$.refptr.uxTimerTaskStack
                0x000000000041f560       0x10 main_full.o
                0x000000000041f560                .refptr.uxTimerTaskStack
 .rdata$.refptr.xInsideInterrupt
                0x000000000041f570       0x10 FreeRTOS_Source\tasks.o
                0x000000000041f570                .refptr.xInsideInterrupt
 .rdata$zzz     0x000000000041f580       0x40 D:/ITI/lectures/5-Intro to ES- Assaf/Tools/General Tools/mingw64/bin/../lib/gcc/x86_64-w64-mingw32/6.2.0/../../../../x86_64-w64-mingw32/lib/../lib/crt2.o
 .rdata$zzz     0x000000000041f5c0       0x40 D:/ITI/lectures/5-Intro to ES- Assaf/Tools/General Tools/mingw64/bin/../lib/gcc/x86_64-w64-mingw32/6.2.0/crtbegin.o
 .rdata$zzz     0x000000000041f600       0x40 DemosModifiedForLowTickRate\recmutex.o
 .rdata$zzz     0x000000000041f640       0x40 FreeRTOS_Source\croutine.o
 .rdata$zzz     0x000000000041f680       0x40 FreeRTOS_Source\event_groups.o
 .rdata$zzz     0x000000000041f6c0       0x40 FreeRTOS_Source\list.o
 .rdata$zzz     0x000000000041f700       0x40 FreeRTOS_Source\portable\MSVC-MingW\port.o
 .rdata$zzz     0x000000000041f740       0x40 FreeRTOS_Source\portable\MemMang\heap_5.o
 .rdata$zzz     0x000000000041f780       0x40 FreeRTOS_Source\queue.o
 .rdata$zzz     0x000000000041f7c0       0x40 FreeRTOS_Source\stream_buffer.o
 .rdata$zzz     0x000000000041f800       0x40 FreeRTOS_Source\tasks.o
 .rdata$zzz     0x000000000041f840       0x40 FreeRTOS_Source\timers.o
 .rdata$zzz     0x000000000041f880       0x40 MyTask.o
 .rdata$zzz     0x000000000041f8c0       0x40 Run-time-stats-utils.o
 .rdata$zzz     0x000000000041f900       0x40 Standard_Demo_Tasks\AbortDelay.o
 .rdata$zzz     0x000000000041f940       0x40 Standard_Demo_Tasks\BlockQ.o
 .rdata$zzz     0x000000000041f980       0x40 Standard_Demo_Tasks\EventGroupsDemo.o
 .rdata$zzz     0x000000000041f9c0       0x40 Standard_Demo_Tasks\GenQTest.o
 .rdata$zzz     0x000000000041fa00       0x40 Standard_Demo_Tasks\IntSemTest.o
 .rdata$zzz     0x000000000041fa40       0x40 Standard_Demo_Tasks\MessageBufferAMP.o
 .rdata$zzz     0x000000000041fa80       0x40 Standard_Demo_Tasks\MessageBufferDemo.o
 .rdata$zzz     0x000000000041fac0       0x40 Standard_Demo_Tasks\PollQ.o
 .rdata$zzz     0x000000000041fb00       0x40 Standard_Demo_Tasks\QPeek.o
 .rdata$zzz     0x000000000041fb40       0x40 Standard_Demo_Tasks\QueueOverwrite.o
 .rdata$zzz     0x000000000041fb80       0x40 Standard_Demo_Tasks\QueueSet.o
 .rdata$zzz     0x000000000041fbc0       0x40 Standard_Demo_Tasks\QueueSetPolling.o
 .rdata$zzz     0x000000000041fc00       0x40 Standard_Demo_Tasks\StaticAllocation.o
 .rdata$zzz     0x000000000041fc40       0x40 Standard_Demo_Tasks\StreamBufferDemo.o
 .rdata$zzz     0x000000000041fc80       0x40 Standard_Demo_Tasks\StreamBufferInterrupt.o
 .rdata$zzz     0x000000000041fcc0       0x40 Standard_Demo_Tasks\TaskNotify.o
 .rdata$zzz     0x000000000041fd00       0x40 Standard_Demo_Tasks\TimerDemo.o
 .rdata$zzz     0x000000000041fd40       0x40 Standard_Demo_Tasks\blocktim.o
 .rdata$zzz     0x000000000041fd80       0x40 Standard_Demo_Tasks\countsem.o
 .rdata$zzz     0x000000000041fdc0       0x40 Standard_Demo_Tasks\death.o
 .rdata$zzz     0x000000000041fe00       0x40 Standard_Demo_Tasks\dynamic.o
 .rdata$zzz     0x000000000041fe40       0x40 Standard_Demo_Tasks\flop.o
 .rdata$zzz     0x000000000041fe80       0x40 Standard_Demo_Tasks\integer.o
 .rdata$zzz     0x000000000041fec0       0x40 Standard_Demo_Tasks\semtest.o
 .rdata$zzz     0x000000000041ff00       0x40 code_coverage_additions.o
 .rdata$zzz     0x000000000041ff40       0x40 main.o
 .rdata$zzz     0x000000000041ff80       0x40 main_blinky.o
 .rdata$zzz     0x000000000041ffc0       0x40 main_full.o
 .rdata$zzz     0x0000000000420000       0x40 D:/ITI/lectures/5-Intro to ES- Assaf/Tools/General Tools/mingw64/bin/../lib/gcc/x86_64-w64-mingw32/6.2.0/../../../../x86_64-w64-mingw32/lib/../lib/libmingw32.a(lib64_libmingw32_a-atonexit.o)
 .rdata$zzz     0x0000000000420040       0x40 D:/ITI/lectures/5-Intro to ES- Assaf/Tools/General Tools/mingw64/bin/../lib/gcc/x86_64-w64-mingw32/6.2.0/../../../../x86_64-w64-mingw32/lib/../lib/libmingw32.a(lib64_libmingw32_a-gccmain.o)
 .rdata$zzz     0x0000000000420080       0x40 D:/ITI/lectures/5-Intro to ES- Assaf/Tools/General Tools/mingw64/bin/../lib/gcc/x86_64-w64-mingw32/6.2.0/../../../../x86_64-w64-mingw32/lib/../lib/libmingw32.a(lib64_libmingw32_a-natstart.o)
 .rdata$zzz     0x00000000004200c0       0x40 D:/ITI/lectures/5-Intro to ES- Assaf/Tools/General Tools/mingw64/bin/../lib/gcc/x86_64-w64-mingw32/6.2.0/../../../../x86_64-w64-mingw32/lib/../lib/libmingw32.a(lib64_libmingw32_a-wildcard.o)
 .rdata$zzz     0x0000000000420100       0x40 D:/ITI/lectures/5-Intro to ES- Assaf/Tools/General Tools/mingw64/bin/../lib/gcc/x86_64-w64-mingw32/6.2.0/../../../../x86_64-w64-mingw32/lib/../lib/libmingw32.a(lib64_libmingw32_a-charmax.o)
 .rdata$zzz     0x0000000000420140       0x40 D:/ITI/lectures/5-Intro to ES- Assaf/Tools/General Tools/mingw64/bin/../lib/gcc/x86_64-w64-mingw32/6.2.0/../../../../x86_64-w64-mingw32/lib/../lib/libmingw32.a(lib64_libmingw32_a-dllargv.o)
 .rdata$zzz     0x0000000000420180       0x40 D:/ITI/lectures/5-Intro to ES- Assaf/Tools/General Tools/mingw64/bin/../lib/gcc/x86_64-w64-mingw32/6.2.0/../../../../x86_64-w64-mingw32/lib/../lib/libmingw32.a(lib64_libmingw32_a-gs_support.o)
 .rdata$zzz     0x00000000004201c0       0x40 D:/ITI/lectures/5-Intro to ES- Assaf/Tools/General Tools/mingw64/bin/../lib/gcc/x86_64-w64-mingw32/6.2.0/../../../../x86_64-w64-mingw32/lib/../lib/libmingw32.a(lib64_libmingw32_a-_newmode.o)
 .rdata$zzz     0x0000000000420200       0x40 D:/ITI/lectures/5-Intro to ES- Assaf/Tools/General Tools/mingw64/bin/../lib/gcc/x86_64-w64-mingw32/6.2.0/../../../../x86_64-w64-mingw32/lib/../lib/libmingw32.a(lib64_libmingw32_a-tlssup.o)
 .rdata$zzz     0x0000000000420240       0x40 D:/ITI/lectures/5-Intro to ES- Assaf/Tools/General Tools/mingw64/bin/../lib/gcc/x86_64-w64-mingw32/6.2.0/../../../../x86_64-w64-mingw32/lib/../lib/libmingw32.a(lib64_libmingw32_a-cinitexe.o)
 .rdata$zzz     0x0000000000420280       0x40 D:/ITI/lectures/5-Intro to ES- Assaf/Tools/General Tools/mingw64/bin/../lib/gcc/x86_64-w64-mingw32/6.2.0/../../../../x86_64-w64-mingw32/lib/../lib/libmingw32.a(lib64_libmingw32_a-merr.o)
 .rdata$zzz     0x00000000004202c0       0x40 D:/ITI/lectures/5-Intro to ES- Assaf/Tools/General Tools/mingw64/bin/../lib/gcc/x86_64-w64-mingw32/6.2.0/../../../../x86_64-w64-mingw32/lib/../lib/libmingw32.a(lib64_libmingw32_a-CRT_fp10.o)
 .rdata$zzz     0x0000000000420300       0x40 D:/ITI/lectures/5-Intro to ES- Assaf/Tools/General Tools/mingw64/bin/../lib/gcc/x86_64-w64-mingw32/6.2.0/../../../../x86_64-w64-mingw32/lib/../lib/libmingw32.a(lib64_libmingw32_a-mingw_helpers.o)
 .rdata$zzz     0x0000000000420340       0x40 D:/ITI/lectures/5-Intro to ES- Assaf/Tools/General Tools/mingw64/bin/../lib/gcc/x86_64-w64-mingw32/6.2.0/../../../../x86_64-w64-mingw32/lib/../lib/libmingw32.a(lib64_libmingw32_a-pseudo-reloc.o)
 .rdata$zzz     0x0000000000420380       0x40 D:/ITI/lectures/5-Intro to ES- Assaf/Tools/General Tools/mingw64/bin/../lib/gcc/x86_64-w64-mingw32/6.2.0/../../../../x86_64-w64-mingw32/lib/../lib/libmingw32.a(lib64_libmingw32_a-xtxtmode.o)
 .rdata$zzz     0x00000000004203c0       0x40 D:/ITI/lectures/5-Intro to ES- Assaf/Tools/General Tools/mingw64/bin/../lib/gcc/x86_64-w64-mingw32/6.2.0/../../../../x86_64-w64-mingw32/lib/../lib/libmingw32.a(lib64_libmingw32_a-crt_handler.o)
 .rdata$zzz     0x0000000000420400       0x40 D:/ITI/lectures/5-Intro to ES- Assaf/Tools/General Tools/mingw64/bin/../lib/gcc/x86_64-w64-mingw32/6.2.0/../../../../x86_64-w64-mingw32/lib/../lib/libmingw32.a(lib64_libmingw32_a-tlsthrd.o)
 .rdata$zzz     0x0000000000420440       0x40 D:/ITI/lectures/5-Intro to ES- Assaf/Tools/General Tools/mingw64/bin/../lib/gcc/x86_64-w64-mingw32/6.2.0/../../../../x86_64-w64-mingw32/lib/../lib/libmingw32.a(lib64_libmingw32_a-tlsmcrt.o)
 .rdata$zzz     0x0000000000420480       0x40 D:/ITI/lectures/5-Intro to ES- Assaf/Tools/General Tools/mingw64/bin/../lib/gcc/x86_64-w64-mingw32/6.2.0/../../../../x86_64-w64-mingw32/lib/../lib/libmingw32.a(lib64_libmingw32_a-pseudo-reloc-list.o)
 .rdata$zzz     0x00000000004204c0       0x40 D:/ITI/lectures/5-Intro to ES- Assaf/Tools/General Tools/mingw64/bin/../lib/gcc/x86_64-w64-mingw32/6.2.0/../../../../x86_64-w64-mingw32/lib/../lib/libmingw32.a(lib64_libmingw32_a-pesect.o)
 .rdata$zzz     0x0000000000420500       0x40 D:/ITI/lectures/5-Intro to ES- Assaf/Tools/General Tools/mingw64/bin/../lib/gcc/x86_64-w64-mingw32/6.2.0/libgcc.a(_ctors.o)
 .rdata$zzz     0x0000000000420540       0x40 D:/ITI/lectures/5-Intro to ES- Assaf/Tools/General Tools/mingw64/bin/../lib/gcc/x86_64-w64-mingw32/6.2.0/../../../../x86_64-w64-mingw32/lib/../lib/libmingwex.a(lib64_libmingwex_a-mingw_matherr.o)
 .rdata$zzz     0x0000000000420580       0x40 D:/ITI/lectures/5-Intro to ES- Assaf/Tools/General Tools/mingw64/bin/../lib/gcc/x86_64-w64-mingw32/6.2.0/../../../../x86_64-w64-mingw32/lib/../lib/libmsvcrt.a(lib64_libmsvcrt_a-invalid_parameter_handler.o)
 .rdata$zzz     0x00000000004205c0       0x40 D:/ITI/lectures/5-Intro to ES- Assaf/Tools/General Tools/mingw64/bin/../lib/gcc/x86_64-w64-mingw32/6.2.0/crtend.o
                0x0000000000420600                __rt_psrelocs_start = .
 *(.rdata_runtime_pseudo_reloc)
                0x0000000000420600                __rt_psrelocs_end = .
                0x0000000000000000                __rt_psrelocs_size = (__rt_psrelocs_end - __rt_psrelocs_start)
                0x0000000000420600                ___RUNTIME_PSEUDO_RELOC_LIST_END__ = .
                0x0000000000420600                __RUNTIME_PSEUDO_RELOC_LIST_END__ = .
                0x0000000000420600                ___RUNTIME_PSEUDO_RELOC_LIST__ = (. - __rt_psrelocs_size)
                0x0000000000420600                __RUNTIME_PSEUDO_RELOC_LIST__ = (. - __rt_psrelocs_size)

.eh_frame
 *(.eh_frame*)

.pdata          0x0000000000421000     0x1800
 *(.pdata*)
 .pdata         0x0000000000421000       0x48 D:/ITI/lectures/5-Intro to ES- Assaf/Tools/General Tools/mingw64/bin/../lib/gcc/x86_64-w64-mingw32/6.2.0/../../../../x86_64-w64-mingw32/lib/../lib/crt2.o
 .pdata         0x0000000000421048       0x24 D:/ITI/lectures/5-Intro to ES- Assaf/Tools/General Tools/mingw64/bin/../lib/gcc/x86_64-w64-mingw32/6.2.0/crtbegin.o
 .pdata         0x000000000042106c       0x3c DemosModifiedForLowTickRate\recmutex.o
 .pdata         0x00000000004210a8       0xb4 FreeRTOS_Source\event_groups.o
 .pdata         0x000000000042115c       0x3c FreeRTOS_Source\list.o
 .pdata         0x0000000000421198       0xa8 FreeRTOS_Source\portable\MSVC-MingW\port.o
 .pdata         0x0000000000421240       0x54 FreeRTOS_Source\portable\MemMang\heap_5.o
 .pdata         0x0000000000421294      0x228 FreeRTOS_Source\queue.o
 .pdata         0x00000000004214bc      0x12c FreeRTOS_Source\stream_buffer.o
 .pdata         0x00000000004215e8      0x360 FreeRTOS_Source\tasks.o
 .pdata         0x0000000000421948      0x144 FreeRTOS_Source\timers.o
 .pdata         0x0000000000421a8c       0x24 MyTask.o
 .pdata         0x0000000000421ab0       0x18 Run-time-stats-utils.o
 .pdata         0x0000000000421ac8       0xa8 Standard_Demo_Tasks\AbortDelay.o
 .pdata         0x0000000000421b70       0x30 Standard_Demo_Tasks\BlockQ.o
 .pdata         0x0000000000421ba0       0x78 Standard_Demo_Tasks\EventGroupsDemo.o
 .pdata         0x0000000000421c18       0x6c Standard_Demo_Tasks\GenQTest.o
 .pdata         0x0000000000421c84       0x60 Standard_Demo_Tasks\IntSemTest.o
 .pdata         0x0000000000421ce4       0x48 Standard_Demo_Tasks\MessageBufferAMP.o
 .pdata         0x0000000000421d2c       0x6c Standard_Demo_Tasks\MessageBufferDemo.o
 .pdata         0x0000000000421d98       0x30 Standard_Demo_Tasks\PollQ.o
 .pdata         0x0000000000421dc8       0x48 Standard_Demo_Tasks\QPeek.o
 .pdata         0x0000000000421e10       0x30 Standard_Demo_Tasks\QueueOverwrite.o
 .pdata         0x0000000000421e40       0xc0 Standard_Demo_Tasks\QueueSet.o
 .pdata         0x0000000000421f00       0x30 Standard_Demo_Tasks\QueueSetPolling.o
 .pdata         0x0000000000421f30       0xe4 Standard_Demo_Tasks\StaticAllocation.o
 .pdata         0x0000000000422014       0x90 Standard_Demo_Tasks\StreamBufferDemo.o
 .pdata         0x00000000004220a4       0x30 Standard_Demo_Tasks\StreamBufferInterrupt.o
 .pdata         0x00000000004220d4       0x60 Standard_Demo_Tasks\TaskNotify.o
 .pdata         0x0000000000422134       0xb4 Standard_Demo_Tasks\TimerDemo.o
 .pdata         0x00000000004221e8       0x3c Standard_Demo_Tasks\blocktim.o
 .pdata         0x0000000000422224       0x3c Standard_Demo_Tasks\countsem.o
 .pdata         0x0000000000422260       0x30 Standard_Demo_Tasks\death.o
 .pdata         0x0000000000422290       0x54 Standard_Demo_Tasks\dynamic.o
 .pdata         0x00000000004222e4       0x48 Standard_Demo_Tasks\flop.o
 .pdata         0x000000000042232c       0x24 Standard_Demo_Tasks\integer.o
 .pdata         0x0000000000422350       0x24 Standard_Demo_Tasks\semtest.o
 .pdata         0x0000000000422374       0x6c code_coverage_additions.o
 .pdata         0x00000000004223e0       0x84 main.o
 .pdata         0x0000000000422464       0x30 main_blinky.o
 .pdata         0x0000000000422494       0xb4 main_full.o
 .pdata         0x0000000000422548       0x18 D:/ITI/lectures/5-Intro to ES- Assaf/Tools/General Tools/mingw64/bin/../lib/gcc/x86_64-w64-mingw32/6.2.0/../../../../x86_64-w64-mingw32/lib/../lib/libmingw32.a(lib64_libmingw32_a-atonexit.o)
 .pdata         0x0000000000422560       0x24 D:/ITI/lectures/5-Intro to ES- Assaf/Tools/General Tools/mingw64/bin/../lib/gcc/x86_64-w64-mingw32/6.2.0/../../../../x86_64-w64-mingw32/lib/../lib/libmingw32.a(lib64_libmingw32_a-gccmain.o)
 .pdata         0x0000000000422584        0xc D:/ITI/lectures/5-Intro to ES- Assaf/Tools/General Tools/mingw64/bin/../lib/gcc/x86_64-w64-mingw32/6.2.0/../../../../x86_64-w64-mingw32/lib/../lib/libmingw32.a(lib64_libmingw32_a-charmax.o)
 .pdata         0x0000000000422590        0xc D:/ITI/lectures/5-Intro to ES- Assaf/Tools/General Tools/mingw64/bin/../lib/gcc/x86_64-w64-mingw32/6.2.0/../../../../x86_64-w64-mingw32/lib/../lib/libmingw32.a(lib64_libmingw32_a-dllargv.o)
 .pdata         0x000000000042259c       0x18 D:/ITI/lectures/5-Intro to ES- Assaf/Tools/General Tools/mingw64/bin/../lib/gcc/x86_64-w64-mingw32/6.2.0/../../../../x86_64-w64-mingw32/lib/../lib/libmingw32.a(lib64_libmingw32_a-gs_support.o)
 .pdata         0x00000000004225b4       0x24 D:/ITI/lectures/5-Intro to ES- Assaf/Tools/General Tools/mingw64/bin/../lib/gcc/x86_64-w64-mingw32/6.2.0/../../../../x86_64-w64-mingw32/lib/../lib/libmingw32.a(lib64_libmingw32_a-tlssup.o)
 .pdata         0x00000000004225d8       0x24 D:/ITI/lectures/5-Intro to ES- Assaf/Tools/General Tools/mingw64/bin/../lib/gcc/x86_64-w64-mingw32/6.2.0/../../../../x86_64-w64-mingw32/lib/../lib/libmingw32.a(lib64_libmingw32_a-merr.o)
 .pdata         0x00000000004225fc        0xc D:/ITI/lectures/5-Intro to ES- Assaf/Tools/General Tools/mingw64/bin/../lib/gcc/x86_64-w64-mingw32/6.2.0/../../../../x86_64-w64-mingw32/lib/../lib/libmingw32.a(lib64_libmingw32_a-CRT_fp10.o)
 .pdata         0x0000000000422608       0x18 D:/ITI/lectures/5-Intro to ES- Assaf/Tools/General Tools/mingw64/bin/../lib/gcc/x86_64-w64-mingw32/6.2.0/../../../../x86_64-w64-mingw32/lib/../lib/libmingw32.a(lib64_libmingw32_a-mingw_helpers.o)
 .pdata         0x0000000000422620       0x24 D:/ITI/lectures/5-Intro to ES- Assaf/Tools/General Tools/mingw64/bin/../lib/gcc/x86_64-w64-mingw32/6.2.0/../../../../x86_64-w64-mingw32/lib/../lib/libmingw32.a(lib64_libmingw32_a-pseudo-reloc.o)
 .pdata         0x0000000000422644       0x24 D:/ITI/lectures/5-Intro to ES- Assaf/Tools/General Tools/mingw64/bin/../lib/gcc/x86_64-w64-mingw32/6.2.0/../../../../x86_64-w64-mingw32/lib/../lib/libmingw32.a(lib64_libmingw32_a-crt_handler.o)
 .pdata         0x0000000000422668       0x30 D:/ITI/lectures/5-Intro to ES- Assaf/Tools/General Tools/mingw64/bin/../lib/gcc/x86_64-w64-mingw32/6.2.0/../../../../x86_64-w64-mingw32/lib/../lib/libmingw32.a(lib64_libmingw32_a-tlsthrd.o)
 .pdata         0x0000000000422698       0x78 D:/ITI/lectures/5-Intro to ES- Assaf/Tools/General Tools/mingw64/bin/../lib/gcc/x86_64-w64-mingw32/6.2.0/../../../../x86_64-w64-mingw32/lib/../lib/libmingw32.a(lib64_libmingw32_a-pesect.o)
 .pdata         0x0000000000422710       0x18 D:/ITI/lectures/5-Intro to ES- Assaf/Tools/General Tools/mingw64/bin/../lib/gcc/x86_64-w64-mingw32/6.2.0/../../../../x86_64-w64-mingw32/lib/../lib/libmsvcrt.a(lib64_libmsvcrt_a-invalid_parameter_handler.o)
 .pdata.startup
                0x0000000000422728        0xc D:/ITI/lectures/5-Intro to ES- Assaf/Tools/General Tools/mingw64/bin/../lib/gcc/x86_64-w64-mingw32/6.2.0/crtend.o

.xdata          0x0000000000423000     0x1800
 *(.xdata*)
 .xdata         0x0000000000423000       0x68 D:/ITI/lectures/5-Intro to ES- Assaf/Tools/General Tools/mingw64/bin/../lib/gcc/x86_64-w64-mingw32/6.2.0/../../../../x86_64-w64-mingw32/lib/../lib/crt2.o
 .xdata         0x0000000000423068       0x1c D:/ITI/lectures/5-Intro to ES- Assaf/Tools/General Tools/mingw64/bin/../lib/gcc/x86_64-w64-mingw32/6.2.0/crtbegin.o
 .xdata         0x0000000000423084       0x3c DemosModifiedForLowTickRate\recmutex.o
 .xdata         0x00000000004230c0       0xb0 FreeRTOS_Source\event_groups.o
 .xdata         0x0000000000423170       0x34 FreeRTOS_Source\list.o
 .xdata         0x00000000004231a4       0xa4 FreeRTOS_Source\portable\MSVC-MingW\port.o
 .xdata         0x0000000000423248       0x4c FreeRTOS_Source\portable\MemMang\heap_5.o
 .xdata         0x0000000000423294      0x21c FreeRTOS_Source\queue.o
 .xdata         0x00000000004234b0      0x120 FreeRTOS_Source\stream_buffer.o
 .xdata         0x00000000004235d0      0x348 FreeRTOS_Source\tasks.o
 .xdata         0x0000000000423918      0x13c FreeRTOS_Source\timers.o
 .xdata         0x0000000000423a54       0x24 MyTask.o
 .xdata         0x0000000000423a78       0x18 Run-time-stats-utils.o
 .xdata         0x0000000000423a90       0xa8 Standard_Demo_Tasks\AbortDelay.o
 .xdata         0x0000000000423b38       0x30 Standard_Demo_Tasks\BlockQ.o
 .xdata         0x0000000000423b68       0x78 Standard_Demo_Tasks\EventGroupsDemo.o
 .xdata         0x0000000000423be0       0x68 Standard_Demo_Tasks\GenQTest.o
 .xdata         0x0000000000423c48       0x5c Standard_Demo_Tasks\IntSemTest.o
 .xdata         0x0000000000423ca4       0x48 Standard_Demo_Tasks\MessageBufferAMP.o
 .xdata         0x0000000000423cec       0x6c Standard_Demo_Tasks\MessageBufferDemo.o
 .xdata         0x0000000000423d58       0x30 Standard_Demo_Tasks\PollQ.o
 .xdata         0x0000000000423d88       0x44 Standard_Demo_Tasks\QPeek.o
 .xdata         0x0000000000423dcc       0x30 Standard_Demo_Tasks\QueueOverwrite.o
 .xdata         0x0000000000423dfc       0xb8 Standard_Demo_Tasks\QueueSet.o
 .xdata         0x0000000000423eb4       0x2c Standard_Demo_Tasks\QueueSetPolling.o
 .xdata         0x0000000000423ee0       0xe4 Standard_Demo_Tasks\StaticAllocation.o
 .xdata         0x0000000000423fc4       0x90 Standard_Demo_Tasks\StreamBufferDemo.o
 .xdata         0x0000000000424054       0x30 Standard_Demo_Tasks\StreamBufferInterrupt.o
 .xdata         0x0000000000424084       0x60 Standard_Demo_Tasks\TaskNotify.o
 .xdata         0x00000000004240e4       0xac Standard_Demo_Tasks\TimerDemo.o
 .xdata         0x0000000000424190       0x3c Standard_Demo_Tasks\blocktim.o
 .xdata         0x00000000004241cc       0x3c Standard_Demo_Tasks\countsem.o
 .xdata         0x0000000000424208       0x30 Standard_Demo_Tasks\death.o
 .xdata         0x0000000000424238       0x54 Standard_Demo_Tasks\dynamic.o
 .xdata         0x000000000042428c       0x48 Standard_Demo_Tasks\flop.o
 .xdata         0x00000000004242d4       0x24 Standard_Demo_Tasks\integer.o
 .xdata         0x00000000004242f8       0x24 Standard_Demo_Tasks\semtest.o
 .xdata         0x000000000042431c       0x68 code_coverage_additions.o
 .xdata         0x0000000000424384       0x80 main.o
 .xdata         0x0000000000424404       0x30 main_blinky.o
 .xdata         0x0000000000424434       0xb8 main_full.o
 .xdata         0x00000000004244ec       0x10 D:/ITI/lectures/5-Intro to ES- Assaf/Tools/General Tools/mingw64/bin/../lib/gcc/x86_64-w64-mingw32/6.2.0/../../../../x86_64-w64-mingw32/lib/../lib/libmingw32.a(lib64_libmingw32_a-atonexit.o)
 .xdata         0x00000000004244fc       0x18 D:/ITI/lectures/5-Intro to ES- Assaf/Tools/General Tools/mingw64/bin/../lib/gcc/x86_64-w64-mingw32/6.2.0/../../../../x86_64-w64-mingw32/lib/../lib/libmingw32.a(lib64_libmingw32_a-gccmain.o)
 .xdata         0x0000000000424514        0x4 D:/ITI/lectures/5-Intro to ES- Assaf/Tools/General Tools/mingw64/bin/../lib/gcc/x86_64-w64-mingw32/6.2.0/../../../../x86_64-w64-mingw32/lib/../lib/libmingw32.a(lib64_libmingw32_a-charmax.o)
 .xdata         0x0000000000424518        0x4 D:/ITI/lectures/5-Intro to ES- Assaf/Tools/General Tools/mingw64/bin/../lib/gcc/x86_64-w64-mingw32/6.2.0/../../../../x86_64-w64-mingw32/lib/../lib/libmingw32.a(lib64_libmingw32_a-dllargv.o)
 .xdata         0x000000000042451c       0x20 D:/ITI/lectures/5-Intro to ES- Assaf/Tools/General Tools/mingw64/bin/../lib/gcc/x86_64-w64-mingw32/6.2.0/../../../../x86_64-w64-mingw32/lib/../lib/libmingw32.a(lib64_libmingw32_a-gs_support.o)
 .xdata         0x000000000042453c       0x18 D:/ITI/lectures/5-Intro to ES- Assaf/Tools/General Tools/mingw64/bin/../lib/gcc/x86_64-w64-mingw32/6.2.0/../../../../x86_64-w64-mingw32/lib/../lib/libmingw32.a(lib64_libmingw32_a-tlssup.o)
 .xdata         0x0000000000424554       0x24 D:/ITI/lectures/5-Intro to ES- Assaf/Tools/General Tools/mingw64/bin/../lib/gcc/x86_64-w64-mingw32/6.2.0/../../../../x86_64-w64-mingw32/lib/../lib/libmingw32.a(lib64_libmingw32_a-merr.o)
 .xdata         0x0000000000424578        0x4 D:/ITI/lectures/5-Intro to ES- Assaf/Tools/General Tools/mingw64/bin/../lib/gcc/x86_64-w64-mingw32/6.2.0/../../../../x86_64-w64-mingw32/lib/../lib/libmingw32.a(lib64_libmingw32_a-CRT_fp10.o)
 .xdata         0x000000000042457c        0x8 D:/ITI/lectures/5-Intro to ES- Assaf/Tools/General Tools/mingw64/bin/../lib/gcc/x86_64-w64-mingw32/6.2.0/../../../../x86_64-w64-mingw32/lib/../lib/libmingw32.a(lib64_libmingw32_a-mingw_helpers.o)
 .xdata         0x0000000000424584       0x38 D:/ITI/lectures/5-Intro to ES- Assaf/Tools/General Tools/mingw64/bin/../lib/gcc/x86_64-w64-mingw32/6.2.0/../../../../x86_64-w64-mingw32/lib/../lib/libmingw32.a(lib64_libmingw32_a-pseudo-reloc.o)
 .xdata         0x00000000004245bc       0x20 D:/ITI/lectures/5-Intro to ES- Assaf/Tools/General Tools/mingw64/bin/../lib/gcc/x86_64-w64-mingw32/6.2.0/../../../../x86_64-w64-mingw32/lib/../lib/libmingw32.a(lib64_libmingw32_a-crt_handler.o)
 .xdata         0x00000000004245dc       0x2c D:/ITI/lectures/5-Intro to ES- Assaf/Tools/General Tools/mingw64/bin/../lib/gcc/x86_64-w64-mingw32/6.2.0/../../../../x86_64-w64-mingw32/lib/../lib/libmingw32.a(lib64_libmingw32_a-tlsthrd.o)
 .xdata         0x0000000000424608       0x60 D:/ITI/lectures/5-Intro to ES- Assaf/Tools/General Tools/mingw64/bin/../lib/gcc/x86_64-w64-mingw32/6.2.0/../../../../x86_64-w64-mingw32/lib/../lib/libmingw32.a(lib64_libmingw32_a-pesect.o)
 .xdata         0x0000000000424668        0x8 D:/ITI/lectures/5-Intro to ES- Assaf/Tools/General Tools/mingw64/bin/../lib/gcc/x86_64-w64-mingw32/6.2.0/../../../../x86_64-w64-mingw32/lib/../lib/libmsvcrt.a(lib64_libmsvcrt_a-invalid_parameter_handler.o)
 .xdata.startup
                0x0000000000424670        0x8 D:/ITI/lectures/5-Intro to ES- Assaf/Tools/General Tools/mingw64/bin/../lib/gcc/x86_64-w64-mingw32/6.2.0/crtend.o

.bss            0x0000000000425000    0x131c0
                0x0000000000425000                __bss_start__ = .
 *(.bss)
 .bss           0x0000000000425000       0x30 D:/ITI/lectures/5-Intro to ES- Assaf/Tools/General Tools/mingw64/bin/../lib/gcc/x86_64-w64-mingw32/6.2.0/../../../../x86_64-w64-mingw32/lib/../lib/crt2.o
 .bss           0x0000000000425030        0x0 D:/ITI/lectures/5-Intro to ES- Assaf/Tools/General Tools/mingw64/bin/../lib/gcc/x86_64-w64-mingw32/6.2.0/crtbegin.o
 .bss           0x0000000000425030       0x50 DemosModifiedForLowTickRate\recmutex.o
 .bss           0x0000000000425080        0x0 FreeRTOS_Source\croutine.o
 .bss           0x0000000000425080        0x0 FreeRTOS_Source\event_groups.o
 .bss           0x0000000000425080        0x0 FreeRTOS_Source\list.o
 .bss           0x0000000000425080      0x140 FreeRTOS_Source\portable\MSVC-MingW\port.o
                0x0000000000425080                xInsideInterrupt
 .bss           0x00000000004251c0       0x40 FreeRTOS_Source\portable\MemMang\heap_5.o
 .bss           0x0000000000425200        0x0 FreeRTOS_Source\queue.o
 .bss           0x0000000000425200        0x0 FreeRTOS_Source\stream_buffer.o
 .bss           0x0000000000425200      0x2c0 FreeRTOS_Source\tasks.o
                0x0000000000425200                pxCurrentTCB
 .bss           0x00000000004254c0      0x3c0 FreeRTOS_Source\timers.o
 .bss           0x0000000000425880       0x10 MyTask.o
                0x0000000000425880                myTaskHandle
 .bss           0x0000000000425890       0x10 Run-time-stats-utils.o
 .bss           0x00000000004258a0      0x1c0 Standard_Demo_Tasks\AbortDelay.o
 .bss           0x0000000000425a60       0x20 Standard_Demo_Tasks\BlockQ.o
 .bss           0x0000000000425a80       0x50 Standard_Demo_Tasks\EventGroupsDemo.o
 .bss           0x0000000000425ad0       0x40 Standard_Demo_Tasks\GenQTest.o
 .bss           0x0000000000425b10       0x50 Standard_Demo_Tasks\IntSemTest.o
 .bss           0x0000000000425b60       0x30 Standard_Demo_Tasks\MessageBufferAMP.o
 *fill*         0x0000000000425b90       0x10 
 .bss           0x0000000000425ba0      0x120 Standard_Demo_Tasks\MessageBufferDemo.o
 .bss           0x0000000000425cc0       0x10 Standard_Demo_Tasks\PollQ.o
 .bss           0x0000000000425cd0       0x10 Standard_Demo_Tasks\QPeek.o
 .bss           0x0000000000425ce0       0x20 Standard_Demo_Tasks\QueueOverwrite.o
 .bss           0x0000000000425d00       0x70 Standard_Demo_Tasks\QueueSet.o
 .bss           0x0000000000425d70       0x20 Standard_Demo_Tasks\QueueSetPolling.o
 *fill*         0x0000000000425d90       0x10 
 .bss           0x0000000000425da0      0x840 Standard_Demo_Tasks\StaticAllocation.o
 .bss           0x00000000004265e0      0x120 Standard_Demo_Tasks\StreamBufferDemo.o
 .bss           0x0000000000426700       0x20 Standard_Demo_Tasks\StreamBufferInterrupt.o
 .bss           0x0000000000426720       0x40 Standard_Demo_Tasks\TaskNotify.o
 .bss           0x0000000000426760      0x140 Standard_Demo_Tasks\TimerDemo.o
 .bss           0x00000000004268a0       0x30 Standard_Demo_Tasks\blocktim.o
 *fill*         0x00000000004268d0       0x10 
 .bss           0x00000000004268e0       0x60 Standard_Demo_Tasks\countsem.o
 .bss           0x0000000000426940       0x10 Standard_Demo_Tasks\death.o
 .bss           0x0000000000426950       0x30 Standard_Demo_Tasks\dynamic.o
 .bss           0x0000000000426980       0x10 Standard_Demo_Tasks\flop.o
 .bss           0x0000000000426990       0x10 Standard_Demo_Tasks\integer.o
 .bss           0x00000000004269a0       0x20 Standard_Demo_Tasks\semtest.o
 .bss           0x00000000004269c0       0x40 code_coverage_additions.o
 .bss           0x0000000000426a00    0x107a0 main.o
 .bss           0x00000000004371a0       0x10 main_blinky.o
 .bss           0x00000000004371b0       0x30 main_full.o
 .bss           0x00000000004371e0        0x0 D:/ITI/lectures/5-Intro to ES- Assaf/Tools/General Tools/mingw64/bin/../lib/gcc/x86_64-w64-mingw32/6.2.0/../../../../x86_64-w64-mingw32/lib/../lib/libwinmm.a(dmces00151.o)
 .bss           0x00000000004371e0        0x0 D:/ITI/lectures/5-Intro to ES- Assaf/Tools/General Tools/mingw64/bin/../lib/gcc/x86_64-w64-mingw32/6.2.0/../../../../x86_64-w64-mingw32/lib/../lib/libwinmm.a(dmces00150.o)
 .bss           0x00000000004371e0        0x0 D:/ITI/lectures/5-Intro to ES- Assaf/Tools/General Tools/mingw64/bin/../lib/gcc/x86_64-w64-mingw32/6.2.0/../../../../x86_64-w64-mingw32/lib/../lib/libwinmm.a(dmces00149.o)
 .bss           0x00000000004371e0        0x0 D:/ITI/lectures/5-Intro to ES- Assaf/Tools/General Tools/mingw64/bin/../lib/gcc/x86_64-w64-mingw32/6.2.0/../../../../x86_64-w64-mingw32/lib/../lib/libwinmm.a(dmceh.o)
 .bss           0x00000000004371e0        0x0 D:/ITI/lectures/5-Intro to ES- Assaf/Tools/General Tools/mingw64/bin/../lib/gcc/x86_64-w64-mingw32/6.2.0/../../../../x86_64-w64-mingw32/lib/../lib/libwinmm.a(dmcet.o)
 .bss           0x00000000004371e0        0x0 D:/ITI/lectures/5-Intro to ES- Assaf/Tools/General Tools/mingw64/bin/../lib/gcc/x86_64-w64-mingw32/6.2.0/../../../../x86_64-w64-mingw32/lib/../lib/libmingw32.a(lib64_libmingw32_a-atonexit.o)
 .bss           0x00000000004371e0       0x10 D:/ITI/lectures/5-Intro to ES- Assaf/Tools/General Tools/mingw64/bin/../lib/gcc/x86_64-w64-mingw32/6.2.0/../../../../x86_64-w64-mingw32/lib/../lib/libmingw32.a(lib64_libmingw32_a-gccmain.o)
 .bss           0x00000000004371f0        0x0 D:/ITI/lectures/5-Intro to ES- Assaf/Tools/General Tools/mingw64/bin/../lib/gcc/x86_64-w64-mingw32/6.2.0/../../../../x86_64-w64-mingw32/lib/../lib/libmingw32.a(lib64_libmingw32_a-natstart.o)
 .bss           0x00000000004371f0        0x0 D:/ITI/lectures/5-Intro to ES- Assaf/Tools/General Tools/mingw64/bin/../lib/gcc/x86_64-w64-mingw32/6.2.0/../../../../x86_64-w64-mingw32/lib/../lib/libmingw32.a(lib64_libmingw32_a-wildcard.o)
 .bss           0x00000000004371f0       0x10 D:/ITI/lectures/5-Intro to ES- Assaf/Tools/General Tools/mingw64/bin/../lib/gcc/x86_64-w64-mingw32/6.2.0/../../../../x86_64-w64-mingw32/lib/../lib/libmingw32.a(lib64_libmingw32_a-charmax.o)
                0x00000000004371f0                mingw_initcharmax
 .bss           0x0000000000437200        0x0 D:/ITI/lectures/5-Intro to ES- Assaf/Tools/General Tools/mingw64/bin/../lib/gcc/x86_64-w64-mingw32/6.2.0/../../../../x86_64-w64-mingw32/lib/../lib/libmingw32.a(lib64_libmingw32_a-dllargv.o)
 .bss           0x0000000000437200      0x5c0 D:/ITI/lectures/5-Intro to ES- Assaf/Tools/General Tools/mingw64/bin/../lib/gcc/x86_64-w64-mingw32/6.2.0/../../../../x86_64-w64-mingw32/lib/../lib/libmingw32.a(lib64_libmingw32_a-gs_support.o)
 .bss           0x00000000004377c0       0x10 D:/ITI/lectures/5-Intro to ES- Assaf/Tools/General Tools/mingw64/bin/../lib/gcc/x86_64-w64-mingw32/6.2.0/../../../../x86_64-w64-mingw32/lib/../lib/libmingw32.a(lib64_libmingw32_a-_newmode.o)
                0x00000000004377c0                _newmode
 .bss           0x00000000004377d0       0x10 D:/ITI/lectures/5-Intro to ES- Assaf/Tools/General Tools/mingw64/bin/../lib/gcc/x86_64-w64-mingw32/6.2.0/../../../../x86_64-w64-mingw32/lib/../lib/libmingw32.a(lib64_libmingw32_a-tlssup.o)
                0x00000000004377d0                mingw_initltssuo_force
                0x00000000004377d4                mingw_initltsdyn_force
                0x00000000004377d8                mingw_initltsdrot_force
                0x00000000004377dc                _tls_index
 .bss           0x00000000004377e0        0x0 D:/ITI/lectures/5-Intro to ES- Assaf/Tools/General Tools/mingw64/bin/../lib/gcc/x86_64-w64-mingw32/6.2.0/../../../../x86_64-w64-mingw32/lib/../lib/libmingw32.a(lib64_libmingw32_a-cinitexe.o)
 .bss           0x00000000004377e0       0x10 D:/ITI/lectures/5-Intro to ES- Assaf/Tools/General Tools/mingw64/bin/../lib/gcc/x86_64-w64-mingw32/6.2.0/../../../../x86_64-w64-mingw32/lib/../lib/libmingw32.a(lib64_libmingw32_a-merr.o)
 .bss           0x00000000004377f0        0x0 D:/ITI/lectures/5-Intro to ES- Assaf/Tools/General Tools/mingw64/bin/../lib/gcc/x86_64-w64-mingw32/6.2.0/../../../../x86_64-w64-mingw32/lib/../lib/libmingw32.a(lib64_libmingw32_a-CRT_fp10.o)
 .bss           0x00000000004377f0       0x10 D:/ITI/lectures/5-Intro to ES- Assaf/Tools/General Tools/mingw64/bin/../lib/gcc/x86_64-w64-mingw32/6.2.0/../../../../x86_64-w64-mingw32/lib/../lib/libmingw32.a(lib64_libmingw32_a-mingw_helpers.o)
                0x00000000004377f0                mingw_app_type
 .bss           0x0000000000437800       0x10 D:/ITI/lectures/5-Intro to ES- Assaf/Tools/General Tools/mingw64/bin/../lib/gcc/x86_64-w64-mingw32/6.2.0/../../../../x86_64-w64-mingw32/lib/../lib/libmingw32.a(lib64_libmingw32_a-pseudo-reloc.o)
 .bss           0x0000000000437810       0x10 D:/ITI/lectures/5-Intro to ES- Assaf/Tools/General Tools/mingw64/bin/../lib/gcc/x86_64-w64-mingw32/6.2.0/../../../../x86_64-w64-mingw32/lib/../lib/libmingw32.a(lib64_libmingw32_a-xtxtmode.o)
                0x0000000000437810                _fmode
 *fill*         0x0000000000437820       0x20 
 .bss           0x0000000000437840      0x2c0 D:/ITI/lectures/5-Intro to ES- Assaf/Tools/General Tools/mingw64/bin/../lib/gcc/x86_64-w64-mingw32/6.2.0/../../../../x86_64-w64-mingw32/lib/../lib/libmingw32.a(lib64_libmingw32_a-crt_handler.o)
                0x0000000000437840                __mingw_oldexcpt_handler
 .bss           0x0000000000437b00       0x60 D:/ITI/lectures/5-Intro to ES- Assaf/Tools/General Tools/mingw64/bin/../lib/gcc/x86_64-w64-mingw32/6.2.0/../../../../x86_64-w64-mingw32/lib/../lib/libmingw32.a(lib64_libmingw32_a-tlsthrd.o)
 .bss           0x0000000000437b60        0x0 D:/ITI/lectures/5-Intro to ES- Assaf/Tools/General Tools/mingw64/bin/../lib/gcc/x86_64-w64-mingw32/6.2.0/../../../../x86_64-w64-mingw32/lib/../lib/libmingw32.a(lib64_libmingw32_a-tlsmcrt.o)
 .bss           0x0000000000437b60       0x10 D:/ITI/lectures/5-Intro to ES- Assaf/Tools/General Tools/mingw64/bin/../lib/gcc/x86_64-w64-mingw32/6.2.0/../../../../x86_64-w64-mingw32/lib/../lib/libmingw32.a(lib64_libmingw32_a-pseudo-reloc-list.o)
 .bss           0x0000000000437b70        0x0 D:/ITI/lectures/5-Intro to ES- Assaf/Tools/General Tools/mingw64/bin/../lib/gcc/x86_64-w64-mingw32/6.2.0/../../../../x86_64-w64-mingw32/lib/../lib/libmingw32.a(lib64_libmingw32_a-pesect.o)
 .bss           0x0000000000437b70        0x0 D:/ITI/lectures/5-Intro to ES- Assaf/Tools/General Tools/mingw64/bin/../lib/gcc/x86_64-w64-mingw32/6.2.0/libgcc.a(_chkstk_ms.o)
 .bss           0x0000000000437b70        0x0 D:/ITI/lectures/5-Intro to ES- Assaf/Tools/General Tools/mingw64/bin/../lib/gcc/x86_64-w64-mingw32/6.2.0/libgcc.a(_ctors.o)
 .bss           0x0000000000437b70        0x0 D:/ITI/lectures/5-Intro to ES- Assaf/Tools/General Tools/mingw64/bin/../lib/gcc/x86_64-w64-mingw32/6.2.0/../../../../x86_64-w64-mingw32/lib/../lib/libmingwex.a(lib64_libmingwex_a-mingw_matherr.o)
 .bss           0x0000000000437b70        0x0 D:/ITI/lectures/5-Intro to ES- Assaf/Tools/General Tools/mingw64/bin/../lib/gcc/x86_64-w64-mingw32/6.2.0/../../../../x86_64-w64-mingw32/lib/../lib/libmsvcrt.a(dekes01240.o)
 .bss           0x0000000000437b70        0x0 D:/ITI/lectures/5-Intro to ES- Assaf/Tools/General Tools/mingw64/bin/../lib/gcc/x86_64-w64-mingw32/6.2.0/../../../../x86_64-w64-mingw32/lib/../lib/libmsvcrt.a(dekes01208.o)
 .bss           0x0000000000437b70        0x0 D:/ITI/lectures/5-Intro to ES- Assaf/Tools/General Tools/mingw64/bin/../lib/gcc/x86_64-w64-mingw32/6.2.0/../../../../x86_64-w64-mingw32/lib/../lib/libmsvcrt.a(dekes01205.o)
 .bss           0x0000000000437b70        0x0 D:/ITI/lectures/5-Intro to ES- Assaf/Tools/General Tools/mingw64/bin/../lib/gcc/x86_64-w64-mingw32/6.2.0/../../../../x86_64-w64-mingw32/lib/../lib/libmsvcrt.a(dekes01198.o)
 .bss           0x0000000000437b70        0x0 D:/ITI/lectures/5-Intro to ES- Assaf/Tools/General Tools/mingw64/bin/../lib/gcc/x86_64-w64-mingw32/6.2.0/../../../../x86_64-w64-mingw32/lib/../lib/libmsvcrt.a(dekes01189.o)
 .bss           0x0000000000437b70        0x0 D:/ITI/lectures/5-Intro to ES- Assaf/Tools/General Tools/mingw64/bin/../lib/gcc/x86_64-w64-mingw32/6.2.0/../../../../x86_64-w64-mingw32/lib/../lib/libmsvcrt.a(dekes01184.o)
 .bss           0x0000000000437b70        0x0 D:/ITI/lectures/5-Intro to ES- Assaf/Tools/General Tools/mingw64/bin/../lib/gcc/x86_64-w64-mingw32/6.2.0/../../../../x86_64-w64-mingw32/lib/../lib/libmsvcrt.a(dekes01173.o)
 .bss           0x0000000000437b70        0x0 D:/ITI/lectures/5-Intro to ES- Assaf/Tools/General Tools/mingw64/bin/../lib/gcc/x86_64-w64-mingw32/6.2.0/../../../../x86_64-w64-mingw32/lib/../lib/libmsvcrt.a(dekes01167.o)
 .bss           0x0000000000437b70        0x0 D:/ITI/lectures/5-Intro to ES- Assaf/Tools/General Tools/mingw64/bin/../lib/gcc/x86_64-w64-mingw32/6.2.0/../../../../x86_64-w64-mingw32/lib/../lib/libmsvcrt.a(dekes01166.o)
 .bss           0x0000000000437b70        0x0 D:/ITI/lectures/5-Intro to ES- Assaf/Tools/General Tools/mingw64/bin/../lib/gcc/x86_64-w64-mingw32/6.2.0/../../../../x86_64-w64-mingw32/lib/../lib/libmsvcrt.a(dekes01163.o)
 .bss           0x0000000000437b70        0x0 D:/ITI/lectures/5-Intro to ES- Assaf/Tools/General Tools/mingw64/bin/../lib/gcc/x86_64-w64-mingw32/6.2.0/../../../../x86_64-w64-mingw32/lib/../lib/libmsvcrt.a(dekes01156.o)
 .bss           0x0000000000437b70        0x0 D:/ITI/lectures/5-Intro to ES- Assaf/Tools/General Tools/mingw64/bin/../lib/gcc/x86_64-w64-mingw32/6.2.0/../../../../x86_64-w64-mingw32/lib/../lib/libmsvcrt.a(dekes01154.o)
 .bss           0x0000000000437b70        0x0 D:/ITI/lectures/5-Intro to ES- Assaf/Tools/General Tools/mingw64/bin/../lib/gcc/x86_64-w64-mingw32/6.2.0/../../../../x86_64-w64-mingw32/lib/../lib/libmsvcrt.a(dekes01153.o)
 .bss           0x0000000000437b70        0x0 D:/ITI/lectures/5-Intro to ES- Assaf/Tools/General Tools/mingw64/bin/../lib/gcc/x86_64-w64-mingw32/6.2.0/../../../../x86_64-w64-mingw32/lib/../lib/libmsvcrt.a(dekes01146.o)
 .bss           0x0000000000437b70        0x0 D:/ITI/lectures/5-Intro to ES- Assaf/Tools/General Tools/mingw64/bin/../lib/gcc/x86_64-w64-mingw32/6.2.0/../../../../x86_64-w64-mingw32/lib/../lib/libmsvcrt.a(dekes01099.o)
 .bss           0x0000000000437b70        0x0 D:/ITI/lectures/5-Intro to ES- Assaf/Tools/General Tools/mingw64/bin/../lib/gcc/x86_64-w64-mingw32/6.2.0/../../../../x86_64-w64-mingw32/lib/../lib/libmsvcrt.a(dekes01087.o)
 .bss           0x0000000000437b70        0x0 D:/ITI/lectures/5-Intro to ES- Assaf/Tools/General Tools/mingw64/bin/../lib/gcc/x86_64-w64-mingw32/6.2.0/../../../../x86_64-w64-mingw32/lib/../lib/libmsvcrt.a(dekes01080.o)
 .bss           0x0000000000437b70        0x0 D:/ITI/lectures/5-Intro to ES- Assaf/Tools/General Tools/mingw64/bin/../lib/gcc/x86_64-w64-mingw32/6.2.0/../../../../x86_64-w64-mingw32/lib/../lib/libmsvcrt.a(dekes01078.o)
 .bss           0x0000000000437b70        0x0 D:/ITI/lectures/5-Intro to ES- Assaf/Tools/General Tools/mingw64/bin/../lib/gcc/x86_64-w64-mingw32/6.2.0/../../../../x86_64-w64-mingw32/lib/../lib/libmsvcrt.a(dekes01068.o)
 .bss           0x0000000000437b70        0x0 D:/ITI/lectures/5-Intro to ES- Assaf/Tools/General Tools/mingw64/bin/../lib/gcc/x86_64-w64-mingw32/6.2.0/../../../../x86_64-w64-mingw32/lib/../lib/libmsvcrt.a(dekes01065.o)
 .bss           0x0000000000437b70        0x0 D:/ITI/lectures/5-Intro to ES- Assaf/Tools/General Tools/mingw64/bin/../lib/gcc/x86_64-w64-mingw32/6.2.0/../../../../x86_64-w64-mingw32/lib/../lib/libmsvcrt.a(dekes01061.o)
 .bss           0x0000000000437b70        0x0 D:/ITI/lectures/5-Intro to ES- Assaf/Tools/General Tools/mingw64/bin/../lib/gcc/x86_64-w64-mingw32/6.2.0/../../../../x86_64-w64-mingw32/lib/../lib/libmsvcrt.a(dekes01048.o)
 .bss           0x0000000000437b70        0x0 D:/ITI/lectures/5-Intro to ES- Assaf/Tools/General Tools/mingw64/bin/../lib/gcc/x86_64-w64-mingw32/6.2.0/../../../../x86_64-w64-mingw32/lib/../lib/libmsvcrt.a(dekes01028.o)
 .bss           0x0000000000437b70        0x0 D:/ITI/lectures/5-Intro to ES- Assaf/Tools/General Tools/mingw64/bin/../lib/gcc/x86_64-w64-mingw32/6.2.0/../../../../x86_64-w64-mingw32/lib/../lib/libmsvcrt.a(dekes00820.o)
 .bss           0x0000000000437b70        0x0 D:/ITI/lectures/5-Intro to ES- Assaf/Tools/General Tools/mingw64/bin/../lib/gcc/x86_64-w64-mingw32/6.2.0/../../../../x86_64-w64-mingw32/lib/../lib/libmsvcrt.a(dekes00611.o)
 .bss           0x0000000000437b70        0x0 D:/ITI/lectures/5-Intro to ES- Assaf/Tools/General Tools/mingw64/bin/../lib/gcc/x86_64-w64-mingw32/6.2.0/../../../../x86_64-w64-mingw32/lib/../lib/libmsvcrt.a(dekes00438.o)
 .bss           0x0000000000437b70        0x0 D:/ITI/lectures/5-Intro to ES- Assaf/Tools/General Tools/mingw64/bin/../lib/gcc/x86_64-w64-mingw32/6.2.0/../../../../x86_64-w64-mingw32/lib/../lib/libmsvcrt.a(dekes00330.o)
 .bss           0x0000000000437b70        0x0 D:/ITI/lectures/5-Intro to ES- Assaf/Tools/General Tools/mingw64/bin/../lib/gcc/x86_64-w64-mingw32/6.2.0/../../../../x86_64-w64-mingw32/lib/../lib/libmsvcrt.a(dekes00252.o)
 .bss           0x0000000000437b70        0x0 D:/ITI/lectures/5-Intro to ES- Assaf/Tools/General Tools/mingw64/bin/../lib/gcc/x86_64-w64-mingw32/6.2.0/../../../../x86_64-w64-mingw32/lib/../lib/libmsvcrt.a(dekes00141.o)
 .bss           0x0000000000437b70        0x0 D:/ITI/lectures/5-Intro to ES- Assaf/Tools/General Tools/mingw64/bin/../lib/gcc/x86_64-w64-mingw32/6.2.0/../../../../x86_64-w64-mingw32/lib/../lib/libmsvcrt.a(dekes00123.o)
 .bss           0x0000000000437b70        0x0 D:/ITI/lectures/5-Intro to ES- Assaf/Tools/General Tools/mingw64/bin/../lib/gcc/x86_64-w64-mingw32/6.2.0/../../../../x86_64-w64-mingw32/lib/../lib/libmsvcrt.a(dekes00116.o)
 .bss           0x0000000000437b70        0x0 D:/ITI/lectures/5-Intro to ES- Assaf/Tools/General Tools/mingw64/bin/../lib/gcc/x86_64-w64-mingw32/6.2.0/../../../../x86_64-w64-mingw32/lib/../lib/libmsvcrt.a(dekes00099.o)
 .bss           0x0000000000437b70        0x0 D:/ITI/lectures/5-Intro to ES- Assaf/Tools/General Tools/mingw64/bin/../lib/gcc/x86_64-w64-mingw32/6.2.0/../../../../x86_64-w64-mingw32/lib/../lib/libmsvcrt.a(dekes00097.o)
 .bss           0x0000000000437b70        0x0 D:/ITI/lectures/5-Intro to ES- Assaf/Tools/General Tools/mingw64/bin/../lib/gcc/x86_64-w64-mingw32/6.2.0/../../../../x86_64-w64-mingw32/lib/../lib/libmsvcrt.a(dekes00091.o)
 .bss           0x0000000000437b70        0x0 D:/ITI/lectures/5-Intro to ES- Assaf/Tools/General Tools/mingw64/bin/../lib/gcc/x86_64-w64-mingw32/6.2.0/../../../../x86_64-w64-mingw32/lib/../lib/libmsvcrt.a(dekes00083.o)
 .bss           0x0000000000437b70        0x0 D:/ITI/lectures/5-Intro to ES- Assaf/Tools/General Tools/mingw64/bin/../lib/gcc/x86_64-w64-mingw32/6.2.0/../../../../x86_64-w64-mingw32/lib/../lib/libmsvcrt.a(dekes00082.o)
 .bss           0x0000000000437b70        0x0 D:/ITI/lectures/5-Intro to ES- Assaf/Tools/General Tools/mingw64/bin/../lib/gcc/x86_64-w64-mingw32/6.2.0/../../../../x86_64-w64-mingw32/lib/../lib/libmsvcrt.a(dekes00081.o)
 .bss           0x0000000000437b70        0x0 D:/ITI/lectures/5-Intro to ES- Assaf/Tools/General Tools/mingw64/bin/../lib/gcc/x86_64-w64-mingw32/6.2.0/../../../../x86_64-w64-mingw32/lib/../lib/libmsvcrt.a(dekes00078.o)
 .bss           0x0000000000437b70        0x0 D:/ITI/lectures/5-Intro to ES- Assaf/Tools/General Tools/mingw64/bin/../lib/gcc/x86_64-w64-mingw32/6.2.0/../../../../x86_64-w64-mingw32/lib/../lib/libmsvcrt.a(dekes00055.o)
 .bss           0x0000000000437b70       0x10 D:/ITI/lectures/5-Intro to ES- Assaf/Tools/General Tools/mingw64/bin/../lib/gcc/x86_64-w64-mingw32/6.2.0/../../../../x86_64-w64-mingw32/lib/../lib/libmsvcrt.a(lib64_libmsvcrt_a-invalid_parameter_handler.o)
 .bss           0x0000000000437b80        0x0 D:/ITI/lectures/5-Intro to ES- Assaf/Tools/General Tools/mingw64/bin/../lib/gcc/x86_64-w64-mingw32/6.2.0/../../../../x86_64-w64-mingw32/lib/../lib/libmsvcrt.a(dekeh.o)
 .bss           0x0000000000437b80        0x0 D:/ITI/lectures/5-Intro to ES- Assaf/Tools/General Tools/mingw64/bin/../lib/gcc/x86_64-w64-mingw32/6.2.0/../../../../x86_64-w64-mingw32/lib/../lib/libmsvcrt.a(deket.o)
 .bss           0x0000000000437b80        0x0 D:/ITI/lectures/5-Intro to ES- Assaf/Tools/General Tools/mingw64/bin/../lib/gcc/x86_64-w64-mingw32/6.2.0/../../../../x86_64-w64-mingw32/lib/../lib/libkernel32.a(dmmds01274.o)
 .bss           0x0000000000437b80        0x0 D:/ITI/lectures/5-Intro to ES- Assaf/Tools/General Tools/mingw64/bin/../lib/gcc/x86_64-w64-mingw32/6.2.0/../../../../x86_64-w64-mingw32/lib/../lib/libkernel32.a(dmmds01272.o)
 .bss           0x0000000000437b80        0x0 D:/ITI/lectures/5-Intro to ES- Assaf/Tools/General Tools/mingw64/bin/../lib/gcc/x86_64-w64-mingw32/6.2.0/../../../../x86_64-w64-mingw32/lib/../lib/libkernel32.a(dmmds01266.o)
 .bss           0x0000000000437b80        0x0 D:/ITI/lectures/5-Intro to ES- Assaf/Tools/General Tools/mingw64/bin/../lib/gcc/x86_64-w64-mingw32/6.2.0/../../../../x86_64-w64-mingw32/lib/../lib/libkernel32.a(dmmds01264.o)
 .bss           0x0000000000437b80        0x0 D:/ITI/lectures/5-Intro to ES- Assaf/Tools/General Tools/mingw64/bin/../lib/gcc/x86_64-w64-mingw32/6.2.0/../../../../x86_64-w64-mingw32/lib/../lib/libkernel32.a(dmmds01234.o)
 .bss           0x0000000000437b80        0x0 D:/ITI/lectures/5-Intro to ES- Assaf/Tools/General Tools/mingw64/bin/../lib/gcc/x86_64-w64-mingw32/6.2.0/../../../../x86_64-w64-mingw32/lib/../lib/libkernel32.a(dmmds01221.o)
 .bss           0x0000000000437b80        0x0 D:/ITI/lectures/5-Intro to ES- Assaf/Tools/General Tools/mingw64/bin/../lib/gcc/x86_64-w64-mingw32/6.2.0/../../../../x86_64-w64-mingw32/lib/../lib/libkernel32.a(dmmds01215.o)
 .bss           0x0000000000437b80        0x0 D:/ITI/lectures/5-Intro to ES- Assaf/Tools/General Tools/mingw64/bin/../lib/gcc/x86_64-w64-mingw32/6.2.0/../../../../x86_64-w64-mingw32/lib/../lib/libkernel32.a(dmmds01214.o)
 .bss           0x0000000000437b80        0x0 D:/ITI/lectures/5-Intro to ES- Assaf/Tools/General Tools/mingw64/bin/../lib/gcc/x86_64-w64-mingw32/6.2.0/../../../../x86_64-w64-mingw32/lib/../lib/libkernel32.a(dmmds01208.o)
 .bss           0x0000000000437b80        0x0 D:/ITI/lectures/5-Intro to ES- Assaf/Tools/General Tools/mingw64/bin/../lib/gcc/x86_64-w64-mingw32/6.2.0/../../../../x86_64-w64-mingw32/lib/../lib/libkernel32.a(dmmds01200.o)
 .bss           0x0000000000437b80        0x0 D:/ITI/lectures/5-Intro to ES- Assaf/Tools/General Tools/mingw64/bin/../lib/gcc/x86_64-w64-mingw32/6.2.0/../../../../x86_64-w64-mingw32/lib/../lib/libkernel32.a(dmmds01187.o)
 .bss           0x0000000000437b80        0x0 D:/ITI/lectures/5-Intro to ES- Assaf/Tools/General Tools/mingw64/bin/../lib/gcc/x86_64-w64-mingw32/6.2.0/../../../../x86_64-w64-mingw32/lib/../lib/libkernel32.a(dmmds01175.o)
 .bss           0x0000000000437b80        0x0 D:/ITI/lectures/5-Intro to ES- Assaf/Tools/General Tools/mingw64/bin/../lib/gcc/x86_64-w64-mingw32/6.2.0/../../../../x86_64-w64-mingw32/lib/../lib/libkernel32.a(dmmds01174.o)
 .bss           0x0000000000437b80        0x0 D:/ITI/lectures/5-Intro to ES- Assaf/Tools/General Tools/mingw64/bin/../lib/gcc/x86_64-w64-mingw32/6.2.0/../../../../x86_64-w64-mingw32/lib/../lib/libkernel32.a(dmmds01165.o)
 .bss           0x0000000000437b80        0x0 D:/ITI/lectures/5-Intro to ES- Assaf/Tools/General Tools/mingw64/bin/../lib/gcc/x86_64-w64-mingw32/6.2.0/../../../../x86_64-w64-mingw32/lib/../lib/libkernel32.a(dmmds01146.o)
 .bss           0x0000000000437b80        0x0 D:/ITI/lectures/5-Intro to ES- Assaf/Tools/General Tools/mingw64/bin/../lib/gcc/x86_64-w64-mingw32/6.2.0/../../../../x86_64-w64-mingw32/lib/../lib/libkernel32.a(dmmds01111.o)
 .bss           0x0000000000437b80        0x0 D:/ITI/lectures/5-Intro to ES- Assaf/Tools/General Tools/mingw64/bin/../lib/gcc/x86_64-w64-mingw32/6.2.0/../../../../x86_64-w64-mingw32/lib/../lib/libkernel32.a(dmmds01067.o)
 .bss           0x0000000000437b80        0x0 D:/ITI/lectures/5-Intro to ES- Assaf/Tools/General Tools/mingw64/bin/../lib/gcc/x86_64-w64-mingw32/6.2.0/../../../../x86_64-w64-mingw32/lib/../lib/libkernel32.a(dmmds01044.o)
 .bss           0x0000000000437b80        0x0 D:/ITI/lectures/5-Intro to ES- Assaf/Tools/General Tools/mingw64/bin/../lib/gcc/x86_64-w64-mingw32/6.2.0/../../../../x86_64-w64-mingw32/lib/../lib/libkernel32.a(dmmds01037.o)
 .bss           0x0000000000437b80        0x0 D:/ITI/lectures/5-Intro to ES- Assaf/Tools/General Tools/mingw64/bin/../lib/gcc/x86_64-w64-mingw32/6.2.0/../../../../x86_64-w64-mingw32/lib/../lib/libkernel32.a(dmmds01030.o)
 .bss           0x0000000000437b80        0x0 D:/ITI/lectures/5-Intro to ES- Assaf/Tools/General Tools/mingw64/bin/../lib/gcc/x86_64-w64-mingw32/6.2.0/../../../../x86_64-w64-mingw32/lib/../lib/libkernel32.a(dmmds01029.o)
 .bss           0x0000000000437b80        0x0 D:/ITI/lectures/5-Intro to ES- Assaf/Tools/General Tools/mingw64/bin/../lib/gcc/x86_64-w64-mingw32/6.2.0/../../../../x86_64-w64-mingw32/lib/../lib/libkernel32.a(dmmds01028.o)
 .bss           0x0000000000437b80        0x0 D:/ITI/lectures/5-Intro to ES- Assaf/Tools/General Tools/mingw64/bin/../lib/gcc/x86_64-w64-mingw32/6.2.0/../../../../x86_64-w64-mingw32/lib/../lib/libkernel32.a(dmmds01024.o)
 .bss           0x0000000000437b80        0x0 D:/ITI/lectures/5-Intro to ES- Assaf/Tools/General Tools/mingw64/bin/../lib/gcc/x86_64-w64-mingw32/6.2.0/../../../../x86_64-w64-mingw32/lib/../lib/libkernel32.a(dmmds01003.o)
 .bss           0x0000000000437b80        0x0 D:/ITI/lectures/5-Intro to ES- Assaf/Tools/General Tools/mingw64/bin/../lib/gcc/x86_64-w64-mingw32/6.2.0/../../../../x86_64-w64-mingw32/lib/../lib/libkernel32.a(dmmds00959.o)
 .bss           0x0000000000437b80        0x0 D:/ITI/lectures/5-Intro to ES- Assaf/Tools/General Tools/mingw64/bin/../lib/gcc/x86_64-w64-mingw32/6.2.0/../../../../x86_64-w64-mingw32/lib/../lib/libkernel32.a(dmmds00958.o)
 .bss           0x0000000000437b80        0x0 D:/ITI/lectures/5-Intro to ES- Assaf/Tools/General Tools/mingw64/bin/../lib/gcc/x86_64-w64-mingw32/6.2.0/../../../../x86_64-w64-mingw32/lib/../lib/libkernel32.a(dmmds00844.o)
 .bss           0x0000000000437b80        0x0 D:/ITI/lectures/5-Intro to ES- Assaf/Tools/General Tools/mingw64/bin/../lib/gcc/x86_64-w64-mingw32/6.2.0/../../../../x86_64-w64-mingw32/lib/../lib/libkernel32.a(dmmds00762.o)
 .bss           0x0000000000437b80        0x0 D:/ITI/lectures/5-Intro to ES- Assaf/Tools/General Tools/mingw64/bin/../lib/gcc/x86_64-w64-mingw32/6.2.0/../../../../x86_64-w64-mingw32/lib/../lib/libkernel32.a(dmmds00678.o)
 .bss           0x0000000000437b80        0x0 D:/ITI/lectures/5-Intro to ES- Assaf/Tools/General Tools/mingw64/bin/../lib/gcc/x86_64-w64-mingw32/6.2.0/../../../../x86_64-w64-mingw32/lib/../lib/libkernel32.a(dmmds00665.o)
 .bss           0x0000000000437b80        0x0 D:/ITI/lectures/5-Intro to ES- Assaf/Tools/General Tools/mingw64/bin/../lib/gcc/x86_64-w64-mingw32/6.2.0/../../../../x86_64-w64-mingw32/lib/../lib/libkernel32.a(dmmds00651.o)
 .bss           0x0000000000437b80        0x0 D:/ITI/lectures/5-Intro to ES- Assaf/Tools/General Tools/mingw64/bin/../lib/gcc/x86_64-w64-mingw32/6.2.0/../../../../x86_64-w64-mingw32/lib/../lib/libkernel32.a(dmmds00645.o)
 .bss           0x0000000000437b80        0x0 D:/ITI/lectures/5-Intro to ES- Assaf/Tools/General Tools/mingw64/bin/../lib/gcc/x86_64-w64-mingw32/6.2.0/../../../../x86_64-w64-mingw32/lib/../lib/libkernel32.a(dmmds00628.o)
 .bss           0x0000000000437b80        0x0 D:/ITI/lectures/5-Intro to ES- Assaf/Tools/General Tools/mingw64/bin/../lib/gcc/x86_64-w64-mingw32/6.2.0/../../../../x86_64-w64-mingw32/lib/../lib/libkernel32.a(dmmds00599.o)
 .bss           0x0000000000437b80        0x0 D:/ITI/lectures/5-Intro to ES- Assaf/Tools/General Tools/mingw64/bin/../lib/gcc/x86_64-w64-mingw32/6.2.0/../../../../x86_64-w64-mingw32/lib/../lib/libkernel32.a(dmmds00549.o)
 .bss           0x0000000000437b80        0x0 D:/ITI/lectures/5-Intro to ES- Assaf/Tools/General Tools/mingw64/bin/../lib/gcc/x86_64-w64-mingw32/6.2.0/../../../../x86_64-w64-mingw32/lib/../lib/libkernel32.a(dmmds00529.o)
 .bss           0x0000000000437b80        0x0 D:/ITI/lectures/5-Intro to ES- Assaf/Tools/General Tools/mingw64/bin/../lib/gcc/x86_64-w64-mingw32/6.2.0/../../../../x86_64-w64-mingw32/lib/../lib/libkernel32.a(dmmds00467.o)
 .bss           0x0000000000437b80        0x0 D:/ITI/lectures/5-Intro to ES- Assaf/Tools/General Tools/mingw64/bin/../lib/gcc/x86_64-w64-mingw32/6.2.0/../../../../x86_64-w64-mingw32/lib/../lib/libkernel32.a(dmmds00466.o)
 .bss           0x0000000000437b80        0x0 D:/ITI/lectures/5-Intro to ES- Assaf/Tools/General Tools/mingw64/bin/../lib/gcc/x86_64-w64-mingw32/6.2.0/../../../../x86_64-w64-mingw32/lib/../lib/libkernel32.a(dmmds00463.o)
 .bss           0x0000000000437b80        0x0 D:/ITI/lectures/5-Intro to ES- Assaf/Tools/General Tools/mingw64/bin/../lib/gcc/x86_64-w64-mingw32/6.2.0/../../../../x86_64-w64-mingw32/lib/../lib/libkernel32.a(dmmds00462.o)
 .bss           0x0000000000437b80        0x0 D:/ITI/lectures/5-Intro to ES- Assaf/Tools/General Tools/mingw64/bin/../lib/gcc/x86_64-w64-mingw32/6.2.0/../../../../x86_64-w64-mingw32/lib/../lib/libkernel32.a(dmmds00295.o)
 .bss           0x0000000000437b80        0x0 D:/ITI/lectures/5-Intro to ES- Assaf/Tools/General Tools/mingw64/bin/../lib/gcc/x86_64-w64-mingw32/6.2.0/../../../../x86_64-w64-mingw32/lib/../lib/libkernel32.a(dmmds00249.o)
 .bss           0x0000000000437b80        0x0 D:/ITI/lectures/5-Intro to ES- Assaf/Tools/General Tools/mingw64/bin/../lib/gcc/x86_64-w64-mingw32/6.2.0/../../../../x86_64-w64-mingw32/lib/../lib/libkernel32.a(dmmds00216.o)
 .bss           0x0000000000437b80        0x0 D:/ITI/lectures/5-Intro to ES- Assaf/Tools/General Tools/mingw64/bin/../lib/gcc/x86_64-w64-mingw32/6.2.0/../../../../x86_64-w64-mingw32/lib/../lib/libkernel32.a(dmmds00186.o)
 .bss           0x0000000000437b80        0x0 D:/ITI/lectures/5-Intro to ES- Assaf/Tools/General Tools/mingw64/bin/../lib/gcc/x86_64-w64-mingw32/6.2.0/../../../../x86_64-w64-mingw32/lib/../lib/libkernel32.a(dmmds00160.o)
 .bss           0x0000000000437b80        0x0 D:/ITI/lectures/5-Intro to ES- Assaf/Tools/General Tools/mingw64/bin/../lib/gcc/x86_64-w64-mingw32/6.2.0/../../../../x86_64-w64-mingw32/lib/../lib/libkernel32.a(dmmds00134.o)
 .bss           0x0000000000437b80        0x0 D:/ITI/lectures/5-Intro to ES- Assaf/Tools/General Tools/mingw64/bin/../lib/gcc/x86_64-w64-mingw32/6.2.0/../../../../x86_64-w64-mingw32/lib/../lib/libkernel32.a(dmmds00085.o)
 .bss           0x0000000000437b80        0x0 D:/ITI/lectures/5-Intro to ES- Assaf/Tools/General Tools/mingw64/bin/../lib/gcc/x86_64-w64-mingw32/6.2.0/../../../../x86_64-w64-mingw32/lib/../lib/libkernel32.a(dmmdh.o)
 .bss           0x0000000000437b80        0x0 D:/ITI/lectures/5-Intro to ES- Assaf/Tools/General Tools/mingw64/bin/../lib/gcc/x86_64-w64-mingw32/6.2.0/../../../../x86_64-w64-mingw32/lib/../lib/libkernel32.a(dmmdt.o)
 .bss           0x0000000000437b80        0x0 D:/ITI/lectures/5-Intro to ES- Assaf/Tools/General Tools/mingw64/bin/../lib/gcc/x86_64-w64-mingw32/6.2.0/crtend.o
 *(COMMON)
 COMMON         0x0000000000437b80       0x10 D:/ITI/lectures/5-Intro to ES- Assaf/Tools/General Tools/mingw64/bin/../lib/gcc/x86_64-w64-mingw32/6.2.0/../../../../x86_64-w64-mingw32/lib/../lib/crt2.o
                0x0000000000437b80                __mingw_winmain_lpCmdLine
                0x0000000000437b88                __mingw_winmain_hInstance
 *fill*         0x0000000000437b90       0x10 
 COMMON         0x0000000000437ba0      0x140 FreeRTOS_Source\queue.o
                0x0000000000437ba0                xQueueRegistry
 COMMON         0x0000000000437ce0       0x18 Standard_Demo_Tasks\QPeek.o
                0x0000000000437ce0                xHighPriorityTask
                0x0000000000437ce8                xMediumPriorityTask
                0x0000000000437cf0                xHighestPriorityTask
 COMMON         0x0000000000437cf8       0x10 Standard_Demo_Tasks\QueueSet.o
                0x0000000000437cf8                xQueueSetSendingTask
                0x0000000000437d00                xQueueSetReceivingTask
 COMMON         0x0000000000437d08        0x8 Standard_Demo_Tasks\death.o
                0x0000000000437d08                xCreatedTask
 COMMON         0x0000000000437d10        0x8 Standard_Demo_Tasks\dynamic.o
                0x0000000000437d10                xSuspendedTestQueue
 *fill*         0x0000000000437d18        0x8 
 COMMON         0x0000000000437d20      0x460 main.o
                0x0000000000437d20                uxTimerTaskStack
 COMMON         0x0000000000438180       0x10 D:/ITI/lectures/5-Intro to ES- Assaf/Tools/General Tools/mingw64/bin/../lib/gcc/x86_64-w64-mingw32/6.2.0/../../../../x86_64-w64-mingw32/lib/../lib/libmingw32.a(lib64_libmingw32_a-atonexit.o)
                0x0000000000438180                __onexitbegin
                0x0000000000438188                __onexitend
 COMMON         0x0000000000438190       0x10 D:/ITI/lectures/5-Intro to ES- Assaf/Tools/General Tools/mingw64/bin/../lib/gcc/x86_64-w64-mingw32/6.2.0/../../../../x86_64-w64-mingw32/lib/../lib/libmingw32.a(lib64_libmingw32_a-natstart.o)
                0x0000000000438190                __native_startup_state
                0x0000000000438198                __native_startup_lock
 COMMON         0x00000000004381a0       0x20 D:/ITI/lectures/5-Intro to ES- Assaf/Tools/General Tools/mingw64/bin/../lib/gcc/x86_64-w64-mingw32/6.2.0/libgcc.a(_ctors.o)
                0x00000000004381c0                __bss_end__ = .

.edata
 *(.edata)

/DISCARD/
 *(.debug$S)
 *(.debug$T)
 *(.debug$F)
 *(.drectve)
 *(.note.GNU-stack)
 *(.gnu.lto_*)

.idata          0x0000000000439000      0xe00
 SORT(*)(.idata$2)
 .idata$2       0x0000000000439000       0x14 D:/ITI/lectures/5-Intro to ES- Assaf/Tools/General Tools/mingw64/bin/../lib/gcc/x86_64-w64-mingw32/6.2.0/../../../../x86_64-w64-mingw32/lib/../lib/libkernel32.a(dmmdh.o)
                0x0000000000439000                _head_lib64_libkernel32_a
 .idata$2       0x0000000000439014       0x14 D:/ITI/lectures/5-Intro to ES- Assaf/Tools/General Tools/mingw64/bin/../lib/gcc/x86_64-w64-mingw32/6.2.0/../../../../x86_64-w64-mingw32/lib/../lib/libmsvcrt.a(dekeh.o)
                0x0000000000439014                _head_lib64_libmsvcrt_a
 .idata$2       0x0000000000439028       0x14 D:/ITI/lectures/5-Intro to ES- Assaf/Tools/General Tools/mingw64/bin/../lib/gcc/x86_64-w64-mingw32/6.2.0/../../../../x86_64-w64-mingw32/lib/../lib/libwinmm.a(dmceh.o)
                0x0000000000439028                _head_lib64_libwinmm_a
 SORT(*)(.idata$3)
                0x000000000043903c        0x4 LONG 0x0
                0x0000000000439040        0x4 LONG 0x0
                0x0000000000439044        0x4 LONG 0x0
                0x0000000000439048        0x4 LONG 0x0
                0x000000000043904c        0x4 LONG 0x0
 SORT(*)(.idata$4)
 .idata$4       0x0000000000439050        0x0 D:/ITI/lectures/5-Intro to ES- Assaf/Tools/General Tools/mingw64/bin/../lib/gcc/x86_64-w64-mingw32/6.2.0/../../../../x86_64-w64-mingw32/lib/../lib/libkernel32.a(dmmdh.o)
 .idata$4       0x0000000000439050        0x8 D:/ITI/lectures/5-Intro to ES- Assaf/Tools/General Tools/mingw64/bin/../lib/gcc/x86_64-w64-mingw32/6.2.0/../../../../x86_64-w64-mingw32/lib/../lib/libkernel32.a(dmmds00085.o)
 .idata$4       0x0000000000439058        0x8 D:/ITI/lectures/5-Intro to ES- Assaf/Tools/General Tools/mingw64/bin/../lib/gcc/x86_64-w64-mingw32/6.2.0/../../../../x86_64-w64-mingw32/lib/../lib/libkernel32.a(dmmds00134.o)
 .idata$4       0x0000000000439060        0x8 D:/ITI/lectures/5-Intro to ES- Assaf/Tools/General Tools/mingw64/bin/../lib/gcc/x86_64-w64-mingw32/6.2.0/../../../../x86_64-w64-mingw32/lib/../lib/libkernel32.a(dmmds00160.o)
 .idata$4       0x0000000000439068        0x8 D:/ITI/lectures/5-Intro to ES- Assaf/Tools/General Tools/mingw64/bin/../lib/gcc/x86_64-w64-mingw32/6.2.0/../../../../x86_64-w64-mingw32/lib/../lib/libkernel32.a(dmmds00186.o)
 .idata$4       0x0000000000439070        0x8 D:/ITI/lectures/5-Intro to ES- Assaf/Tools/General Tools/mingw64/bin/../lib/gcc/x86_64-w64-mingw32/6.2.0/../../../../x86_64-w64-mingw32/lib/../lib/libkernel32.a(dmmds00216.o)
 .idata$4       0x0000000000439078        0x8 D:/ITI/lectures/5-Intro to ES- Assaf/Tools/General Tools/mingw64/bin/../lib/gcc/x86_64-w64-mingw32/6.2.0/../../../../x86_64-w64-mingw32/lib/../lib/libkernel32.a(dmmds00249.o)
 .idata$4       0x0000000000439080        0x8 D:/ITI/lectures/5-Intro to ES- Assaf/Tools/General Tools/mingw64/bin/../lib/gcc/x86_64-w64-mingw32/6.2.0/../../../../x86_64-w64-mingw32/lib/../lib/libkernel32.a(dmmds00295.o)
 .idata$4       0x0000000000439088        0x8 D:/ITI/lectures/5-Intro to ES- Assaf/Tools/General Tools/mingw64/bin/../lib/gcc/x86_64-w64-mingw32/6.2.0/../../../../x86_64-w64-mingw32/lib/../lib/libkernel32.a(dmmds00462.o)
 .idata$4       0x0000000000439090        0x8 D:/ITI/lectures/5-Intro to ES- Assaf/Tools/General Tools/mingw64/bin/../lib/gcc/x86_64-w64-mingw32/6.2.0/../../../../x86_64-w64-mingw32/lib/../lib/libkernel32.a(dmmds00463.o)
 .idata$4       0x0000000000439098        0x8 D:/ITI/lectures/5-Intro to ES- Assaf/Tools/General Tools/mingw64/bin/../lib/gcc/x86_64-w64-mingw32/6.2.0/../../../../x86_64-w64-mingw32/lib/../lib/libkernel32.a(dmmds00466.o)
 .idata$4       0x00000000004390a0        0x8 D:/ITI/lectures/5-Intro to ES- Assaf/Tools/General Tools/mingw64/bin/../lib/gcc/x86_64-w64-mingw32/6.2.0/../../../../x86_64-w64-mingw32/lib/../lib/libkernel32.a(dmmds00467.o)
 .idata$4       0x00000000004390a8        0x8 D:/ITI/lectures/5-Intro to ES- Assaf/Tools/General Tools/mingw64/bin/../lib/gcc/x86_64-w64-mingw32/6.2.0/../../../../x86_64-w64-mingw32/lib/../lib/libkernel32.a(dmmds00529.o)
 .idata$4       0x00000000004390b0        0x8 D:/ITI/lectures/5-Intro to ES- Assaf/Tools/General Tools/mingw64/bin/../lib/gcc/x86_64-w64-mingw32/6.2.0/../../../../x86_64-w64-mingw32/lib/../lib/libkernel32.a(dmmds00549.o)
 .idata$4       0x00000000004390b8        0x8 D:/ITI/lectures/5-Intro to ES- Assaf/Tools/General Tools/mingw64/bin/../lib/gcc/x86_64-w64-mingw32/6.2.0/../../../../x86_64-w64-mingw32/lib/../lib/libkernel32.a(dmmds00599.o)
 .idata$4       0x00000000004390c0        0x8 D:/ITI/lectures/5-Intro to ES- Assaf/Tools/General Tools/mingw64/bin/../lib/gcc/x86_64-w64-mingw32/6.2.0/../../../../x86_64-w64-mingw32/lib/../lib/libkernel32.a(dmmds00628.o)
 .idata$4       0x00000000004390c8        0x8 D:/ITI/lectures/5-Intro to ES- Assaf/Tools/General Tools/mingw64/bin/../lib/gcc/x86_64-w64-mingw32/6.2.0/../../../../x86_64-w64-mingw32/lib/../lib/libkernel32.a(dmmds00645.o)
 .idata$4       0x00000000004390d0        0x8 D:/ITI/lectures/5-Intro to ES- Assaf/Tools/General Tools/mingw64/bin/../lib/gcc/x86_64-w64-mingw32/6.2.0/../../../../x86_64-w64-mingw32/lib/../lib/libkernel32.a(dmmds00651.o)
 .idata$4       0x00000000004390d8        0x8 D:/ITI/lectures/5-Intro to ES- Assaf/Tools/General Tools/mingw64/bin/../lib/gcc/x86_64-w64-mingw32/6.2.0/../../../../x86_64-w64-mingw32/lib/../lib/libkernel32.a(dmmds00665.o)
 .idata$4       0x00000000004390e0        0x8 D:/ITI/lectures/5-Intro to ES- Assaf/Tools/General Tools/mingw64/bin/../lib/gcc/x86_64-w64-mingw32/6.2.0/../../../../x86_64-w64-mingw32/lib/../lib/libkernel32.a(dmmds00678.o)
 .idata$4       0x00000000004390e8        0x8 D:/ITI/lectures/5-Intro to ES- Assaf/Tools/General Tools/mingw64/bin/../lib/gcc/x86_64-w64-mingw32/6.2.0/../../../../x86_64-w64-mingw32/lib/../lib/libkernel32.a(dmmds00762.o)
 .idata$4       0x00000000004390f0        0x8 D:/ITI/lectures/5-Intro to ES- Assaf/Tools/General Tools/mingw64/bin/../lib/gcc/x86_64-w64-mingw32/6.2.0/../../../../x86_64-w64-mingw32/lib/../lib/libkernel32.a(dmmds00844.o)
 .idata$4       0x00000000004390f8        0x8 D:/ITI/lectures/5-Intro to ES- Assaf/Tools/General Tools/mingw64/bin/../lib/gcc/x86_64-w64-mingw32/6.2.0/../../../../x86_64-w64-mingw32/lib/../lib/libkernel32.a(dmmds00958.o)
 .idata$4       0x0000000000439100        0x8 D:/ITI/lectures/5-Intro to ES- Assaf/Tools/General Tools/mingw64/bin/../lib/gcc/x86_64-w64-mingw32/6.2.0/../../../../x86_64-w64-mingw32/lib/../lib/libkernel32.a(dmmds00959.o)
 .idata$4       0x0000000000439108        0x8 D:/ITI/lectures/5-Intro to ES- Assaf/Tools/General Tools/mingw64/bin/../lib/gcc/x86_64-w64-mingw32/6.2.0/../../../../x86_64-w64-mingw32/lib/../lib/libkernel32.a(dmmds01003.o)
 .idata$4       0x0000000000439110        0x8 D:/ITI/lectures/5-Intro to ES- Assaf/Tools/General Tools/mingw64/bin/../lib/gcc/x86_64-w64-mingw32/6.2.0/../../../../x86_64-w64-mingw32/lib/../lib/libkernel32.a(dmmds01024.o)
 .idata$4       0x0000000000439118        0x8 D:/ITI/lectures/5-Intro to ES- Assaf/Tools/General Tools/mingw64/bin/../lib/gcc/x86_64-w64-mingw32/6.2.0/../../../../x86_64-w64-mingw32/lib/../lib/libkernel32.a(dmmds01028.o)
 .idata$4       0x0000000000439120        0x8 D:/ITI/lectures/5-Intro to ES- Assaf/Tools/General Tools/mingw64/bin/../lib/gcc/x86_64-w64-mingw32/6.2.0/../../../../x86_64-w64-mingw32/lib/../lib/libkernel32.a(dmmds01029.o)
 .idata$4       0x0000000000439128        0x8 D:/ITI/lectures/5-Intro to ES- Assaf/Tools/General Tools/mingw64/bin/../lib/gcc/x86_64-w64-mingw32/6.2.0/../../../../x86_64-w64-mingw32/lib/../lib/libkernel32.a(dmmds01030.o)
 .idata$4       0x0000000000439130        0x8 D:/ITI/lectures/5-Intro to ES- Assaf/Tools/General Tools/mingw64/bin/../lib/gcc/x86_64-w64-mingw32/6.2.0/../../../../x86_64-w64-mingw32/lib/../lib/libkernel32.a(dmmds01037.o)
 .idata$4       0x0000000000439138        0x8 D:/ITI/lectures/5-Intro to ES- Assaf/Tools/General Tools/mingw64/bin/../lib/gcc/x86_64-w64-mingw32/6.2.0/../../../../x86_64-w64-mingw32/lib/../lib/libkernel32.a(dmmds01044.o)
 .idata$4       0x0000000000439140        0x8 D:/ITI/lectures/5-Intro to ES- Assaf/Tools/General Tools/mingw64/bin/../lib/gcc/x86_64-w64-mingw32/6.2.0/../../../../x86_64-w64-mingw32/lib/../lib/libkernel32.a(dmmds01067.o)
 .idata$4       0x0000000000439148        0x8 D:/ITI/lectures/5-Intro to ES- Assaf/Tools/General Tools/mingw64/bin/../lib/gcc/x86_64-w64-mingw32/6.2.0/../../../../x86_64-w64-mingw32/lib/../lib/libkernel32.a(dmmds01111.o)
 .idata$4       0x0000000000439150        0x8 D:/ITI/lectures/5-Intro to ES- Assaf/Tools/General Tools/mingw64/bin/../lib/gcc/x86_64-w64-mingw32/6.2.0/../../../../x86_64-w64-mingw32/lib/../lib/libkernel32.a(dmmds01146.o)
 .idata$4       0x0000000000439158        0x8 D:/ITI/lectures/5-Intro to ES- Assaf/Tools/General Tools/mingw64/bin/../lib/gcc/x86_64-w64-mingw32/6.2.0/../../../../x86_64-w64-mingw32/lib/../lib/libkernel32.a(dmmds01165.o)
 .idata$4       0x0000000000439160        0x8 D:/ITI/lectures/5-Intro to ES- Assaf/Tools/General Tools/mingw64/bin/../lib/gcc/x86_64-w64-mingw32/6.2.0/../../../../x86_64-w64-mingw32/lib/../lib/libkernel32.a(dmmds01174.o)
 .idata$4       0x0000000000439168        0x8 D:/ITI/lectures/5-Intro to ES- Assaf/Tools/General Tools/mingw64/bin/../lib/gcc/x86_64-w64-mingw32/6.2.0/../../../../x86_64-w64-mingw32/lib/../lib/libkernel32.a(dmmds01175.o)
 .idata$4       0x0000000000439170        0x8 D:/ITI/lectures/5-Intro to ES- Assaf/Tools/General Tools/mingw64/bin/../lib/gcc/x86_64-w64-mingw32/6.2.0/../../../../x86_64-w64-mingw32/lib/../lib/libkernel32.a(dmmds01187.o)
 .idata$4       0x0000000000439178        0x8 D:/ITI/lectures/5-Intro to ES- Assaf/Tools/General Tools/mingw64/bin/../lib/gcc/x86_64-w64-mingw32/6.2.0/../../../../x86_64-w64-mingw32/lib/../lib/libkernel32.a(dmmds01200.o)
 .idata$4       0x0000000000439180        0x8 D:/ITI/lectures/5-Intro to ES- Assaf/Tools/General Tools/mingw64/bin/../lib/gcc/x86_64-w64-mingw32/6.2.0/../../../../x86_64-w64-mingw32/lib/../lib/libkernel32.a(dmmds01208.o)
 .idata$4       0x0000000000439188        0x8 D:/ITI/lectures/5-Intro to ES- Assaf/Tools/General Tools/mingw64/bin/../lib/gcc/x86_64-w64-mingw32/6.2.0/../../../../x86_64-w64-mingw32/lib/../lib/libkernel32.a(dmmds01214.o)
 .idata$4       0x0000000000439190        0x8 D:/ITI/lectures/5-Intro to ES- Assaf/Tools/General Tools/mingw64/bin/../lib/gcc/x86_64-w64-mingw32/6.2.0/../../../../x86_64-w64-mingw32/lib/../lib/libkernel32.a(dmmds01215.o)
 .idata$4       0x0000000000439198        0x8 D:/ITI/lectures/5-Intro to ES- Assaf/Tools/General Tools/mingw64/bin/../lib/gcc/x86_64-w64-mingw32/6.2.0/../../../../x86_64-w64-mingw32/lib/../lib/libkernel32.a(dmmds01221.o)
 .idata$4       0x00000000004391a0        0x8 D:/ITI/lectures/5-Intro to ES- Assaf/Tools/General Tools/mingw64/bin/../lib/gcc/x86_64-w64-mingw32/6.2.0/../../../../x86_64-w64-mingw32/lib/../lib/libkernel32.a(dmmds01234.o)
 .idata$4       0x00000000004391a8        0x8 D:/ITI/lectures/5-Intro to ES- Assaf/Tools/General Tools/mingw64/bin/../lib/gcc/x86_64-w64-mingw32/6.2.0/../../../../x86_64-w64-mingw32/lib/../lib/libkernel32.a(dmmds01264.o)
 .idata$4       0x00000000004391b0        0x8 D:/ITI/lectures/5-Intro to ES- Assaf/Tools/General Tools/mingw64/bin/../lib/gcc/x86_64-w64-mingw32/6.2.0/../../../../x86_64-w64-mingw32/lib/../lib/libkernel32.a(dmmds01266.o)
 .idata$4       0x00000000004391b8        0x8 D:/ITI/lectures/5-Intro to ES- Assaf/Tools/General Tools/mingw64/bin/../lib/gcc/x86_64-w64-mingw32/6.2.0/../../../../x86_64-w64-mingw32/lib/../lib/libkernel32.a(dmmds01272.o)
 .idata$4       0x00000000004391c0        0x8 D:/ITI/lectures/5-Intro to ES- Assaf/Tools/General Tools/mingw64/bin/../lib/gcc/x86_64-w64-mingw32/6.2.0/../../../../x86_64-w64-mingw32/lib/../lib/libkernel32.a(dmmds01274.o)
 .idata$4       0x00000000004391c8        0x8 D:/ITI/lectures/5-Intro to ES- Assaf/Tools/General Tools/mingw64/bin/../lib/gcc/x86_64-w64-mingw32/6.2.0/../../../../x86_64-w64-mingw32/lib/../lib/libkernel32.a(dmmdt.o)
 .idata$4       0x00000000004391d0        0x0 D:/ITI/lectures/5-Intro to ES- Assaf/Tools/General Tools/mingw64/bin/../lib/gcc/x86_64-w64-mingw32/6.2.0/../../../../x86_64-w64-mingw32/lib/../lib/libmsvcrt.a(dekeh.o)
 .idata$4       0x00000000004391d0        0x8 D:/ITI/lectures/5-Intro to ES- Assaf/Tools/General Tools/mingw64/bin/../lib/gcc/x86_64-w64-mingw32/6.2.0/../../../../x86_64-w64-mingw32/lib/../lib/libmsvcrt.a(dekes00055.o)
 .idata$4       0x00000000004391d8        0x8 D:/ITI/lectures/5-Intro to ES- Assaf/Tools/General Tools/mingw64/bin/../lib/gcc/x86_64-w64-mingw32/6.2.0/../../../../x86_64-w64-mingw32/lib/../lib/libmsvcrt.a(dekes00078.o)
 .idata$4       0x00000000004391e0        0x8 D:/ITI/lectures/5-Intro to ES- Assaf/Tools/General Tools/mingw64/bin/../lib/gcc/x86_64-w64-mingw32/6.2.0/../../../../x86_64-w64-mingw32/lib/../lib/libmsvcrt.a(dekes00081.o)
 .idata$4       0x00000000004391e8        0x8 D:/ITI/lectures/5-Intro to ES- Assaf/Tools/General Tools/mingw64/bin/../lib/gcc/x86_64-w64-mingw32/6.2.0/../../../../x86_64-w64-mingw32/lib/../lib/libmsvcrt.a(dekes00082.o)
 .idata$4       0x00000000004391f0        0x8 D:/ITI/lectures/5-Intro to ES- Assaf/Tools/General Tools/mingw64/bin/../lib/gcc/x86_64-w64-mingw32/6.2.0/../../../../x86_64-w64-mingw32/lib/../lib/libmsvcrt.a(dekes00083.o)
 .idata$4       0x00000000004391f8        0x8 D:/ITI/lectures/5-Intro to ES- Assaf/Tools/General Tools/mingw64/bin/../lib/gcc/x86_64-w64-mingw32/6.2.0/../../../../x86_64-w64-mingw32/lib/../lib/libmsvcrt.a(dekes00091.o)
 .idata$4       0x0000000000439200        0x8 D:/ITI/lectures/5-Intro to ES- Assaf/Tools/General Tools/mingw64/bin/../lib/gcc/x86_64-w64-mingw32/6.2.0/../../../../x86_64-w64-mingw32/lib/../lib/libmsvcrt.a(dekes00097.o)
 .idata$4       0x0000000000439208        0x8 D:/ITI/lectures/5-Intro to ES- Assaf/Tools/General Tools/mingw64/bin/../lib/gcc/x86_64-w64-mingw32/6.2.0/../../../../x86_64-w64-mingw32/lib/../lib/libmsvcrt.a(dekes00099.o)
 .idata$4       0x0000000000439210        0x8 D:/ITI/lectures/5-Intro to ES- Assaf/Tools/General Tools/mingw64/bin/../lib/gcc/x86_64-w64-mingw32/6.2.0/../../../../x86_64-w64-mingw32/lib/../lib/libmsvcrt.a(dekes00116.o)
 .idata$4       0x0000000000439218        0x8 D:/ITI/lectures/5-Intro to ES- Assaf/Tools/General Tools/mingw64/bin/../lib/gcc/x86_64-w64-mingw32/6.2.0/../../../../x86_64-w64-mingw32/lib/../lib/libmsvcrt.a(dekes00123.o)
 .idata$4       0x0000000000439220        0x8 D:/ITI/lectures/5-Intro to ES- Assaf/Tools/General Tools/mingw64/bin/../lib/gcc/x86_64-w64-mingw32/6.2.0/../../../../x86_64-w64-mingw32/lib/../lib/libmsvcrt.a(dekes00141.o)
 .idata$4       0x0000000000439228        0x8 D:/ITI/lectures/5-Intro to ES- Assaf/Tools/General Tools/mingw64/bin/../lib/gcc/x86_64-w64-mingw32/6.2.0/../../../../x86_64-w64-mingw32/lib/../lib/libmsvcrt.a(dekes00252.o)
 .idata$4       0x0000000000439230        0x8 D:/ITI/lectures/5-Intro to ES- Assaf/Tools/General Tools/mingw64/bin/../lib/gcc/x86_64-w64-mingw32/6.2.0/../../../../x86_64-w64-mingw32/lib/../lib/libmsvcrt.a(dekes00330.o)
 .idata$4       0x0000000000439238        0x8 D:/ITI/lectures/5-Intro to ES- Assaf/Tools/General Tools/mingw64/bin/../lib/gcc/x86_64-w64-mingw32/6.2.0/../../../../x86_64-w64-mingw32/lib/../lib/libmsvcrt.a(dekes00438.o)
 .idata$4       0x0000000000439240        0x8 D:/ITI/lectures/5-Intro to ES- Assaf/Tools/General Tools/mingw64/bin/../lib/gcc/x86_64-w64-mingw32/6.2.0/../../../../x86_64-w64-mingw32/lib/../lib/libmsvcrt.a(dekes00611.o)
 .idata$4       0x0000000000439248        0x8 D:/ITI/lectures/5-Intro to ES- Assaf/Tools/General Tools/mingw64/bin/../lib/gcc/x86_64-w64-mingw32/6.2.0/../../../../x86_64-w64-mingw32/lib/../lib/libmsvcrt.a(dekes00820.o)
 .idata$4       0x0000000000439250        0x8 D:/ITI/lectures/5-Intro to ES- Assaf/Tools/General Tools/mingw64/bin/../lib/gcc/x86_64-w64-mingw32/6.2.0/../../../../x86_64-w64-mingw32/lib/../lib/libmsvcrt.a(dekes01028.o)
 .idata$4       0x0000000000439258        0x8 D:/ITI/lectures/5-Intro to ES- Assaf/Tools/General Tools/mingw64/bin/../lib/gcc/x86_64-w64-mingw32/6.2.0/../../../../x86_64-w64-mingw32/lib/../lib/libmsvcrt.a(dekes01048.o)
 .idata$4       0x0000000000439260        0x8 D:/ITI/lectures/5-Intro to ES- Assaf/Tools/General Tools/mingw64/bin/../lib/gcc/x86_64-w64-mingw32/6.2.0/../../../../x86_64-w64-mingw32/lib/../lib/libmsvcrt.a(dekes01061.o)
 .idata$4       0x0000000000439268        0x8 D:/ITI/lectures/5-Intro to ES- Assaf/Tools/General Tools/mingw64/bin/../lib/gcc/x86_64-w64-mingw32/6.2.0/../../../../x86_64-w64-mingw32/lib/../lib/libmsvcrt.a(dekes01065.o)
 .idata$4       0x0000000000439270        0x8 D:/ITI/lectures/5-Intro to ES- Assaf/Tools/General Tools/mingw64/bin/../lib/gcc/x86_64-w64-mingw32/6.2.0/../../../../x86_64-w64-mingw32/lib/../lib/libmsvcrt.a(dekes01068.o)
 .idata$4       0x0000000000439278        0x8 D:/ITI/lectures/5-Intro to ES- Assaf/Tools/General Tools/mingw64/bin/../lib/gcc/x86_64-w64-mingw32/6.2.0/../../../../x86_64-w64-mingw32/lib/../lib/libmsvcrt.a(dekes01078.o)
 .idata$4       0x0000000000439280        0x8 D:/ITI/lectures/5-Intro to ES- Assaf/Tools/General Tools/mingw64/bin/../lib/gcc/x86_64-w64-mingw32/6.2.0/../../../../x86_64-w64-mingw32/lib/../lib/libmsvcrt.a(dekes01080.o)
 .idata$4       0x0000000000439288        0x8 D:/ITI/lectures/5-Intro to ES- Assaf/Tools/General Tools/mingw64/bin/../lib/gcc/x86_64-w64-mingw32/6.2.0/../../../../x86_64-w64-mingw32/lib/../lib/libmsvcrt.a(dekes01087.o)
 .idata$4       0x0000000000439290        0x8 D:/ITI/lectures/5-Intro to ES- Assaf/Tools/General Tools/mingw64/bin/../lib/gcc/x86_64-w64-mingw32/6.2.0/../../../../x86_64-w64-mingw32/lib/../lib/libmsvcrt.a(dekes01099.o)
 .idata$4       0x0000000000439298        0x8 D:/ITI/lectures/5-Intro to ES- Assaf/Tools/General Tools/mingw64/bin/../lib/gcc/x86_64-w64-mingw32/6.2.0/../../../../x86_64-w64-mingw32/lib/../lib/libmsvcrt.a(dekes01146.o)
 .idata$4       0x00000000004392a0        0x8 D:/ITI/lectures/5-Intro to ES- Assaf/Tools/General Tools/mingw64/bin/../lib/gcc/x86_64-w64-mingw32/6.2.0/../../../../x86_64-w64-mingw32/lib/../lib/libmsvcrt.a(dekes01153.o)
 .idata$4       0x00000000004392a8        0x8 D:/ITI/lectures/5-Intro to ES- Assaf/Tools/General Tools/mingw64/bin/../lib/gcc/x86_64-w64-mingw32/6.2.0/../../../../x86_64-w64-mingw32/lib/../lib/libmsvcrt.a(dekes01154.o)
 .idata$4       0x00000000004392b0        0x8 D:/ITI/lectures/5-Intro to ES- Assaf/Tools/General Tools/mingw64/bin/../lib/gcc/x86_64-w64-mingw32/6.2.0/../../../../x86_64-w64-mingw32/lib/../lib/libmsvcrt.a(dekes01156.o)
 .idata$4       0x00000000004392b8        0x8 D:/ITI/lectures/5-Intro to ES- Assaf/Tools/General Tools/mingw64/bin/../lib/gcc/x86_64-w64-mingw32/6.2.0/../../../../x86_64-w64-mingw32/lib/../lib/libmsvcrt.a(dekes01163.o)
 .idata$4       0x00000000004392c0        0x8 D:/ITI/lectures/5-Intro to ES- Assaf/Tools/General Tools/mingw64/bin/../lib/gcc/x86_64-w64-mingw32/6.2.0/../../../../x86_64-w64-mingw32/lib/../lib/libmsvcrt.a(dekes01166.o)
 .idata$4       0x00000000004392c8        0x8 D:/ITI/lectures/5-Intro to ES- Assaf/Tools/General Tools/mingw64/bin/../lib/gcc/x86_64-w64-mingw32/6.2.0/../../../../x86_64-w64-mingw32/lib/../lib/libmsvcrt.a(dekes01167.o)
 .idata$4       0x00000000004392d0        0x8 D:/ITI/lectures/5-Intro to ES- Assaf/Tools/General Tools/mingw64/bin/../lib/gcc/x86_64-w64-mingw32/6.2.0/../../../../x86_64-w64-mingw32/lib/../lib/libmsvcrt.a(dekes01173.o)
 .idata$4       0x00000000004392d8        0x8 D:/ITI/lectures/5-Intro to ES- Assaf/Tools/General Tools/mingw64/bin/../lib/gcc/x86_64-w64-mingw32/6.2.0/../../../../x86_64-w64-mingw32/lib/../lib/libmsvcrt.a(dekes01184.o)
 .idata$4       0x00000000004392e0        0x8 D:/ITI/lectures/5-Intro to ES- Assaf/Tools/General Tools/mingw64/bin/../lib/gcc/x86_64-w64-mingw32/6.2.0/../../../../x86_64-w64-mingw32/lib/../lib/libmsvcrt.a(dekes01189.o)
 .idata$4       0x00000000004392e8        0x8 D:/ITI/lectures/5-Intro to ES- Assaf/Tools/General Tools/mingw64/bin/../lib/gcc/x86_64-w64-mingw32/6.2.0/../../../../x86_64-w64-mingw32/lib/../lib/libmsvcrt.a(dekes01198.o)
 .idata$4       0x00000000004392f0        0x8 D:/ITI/lectures/5-Intro to ES- Assaf/Tools/General Tools/mingw64/bin/../lib/gcc/x86_64-w64-mingw32/6.2.0/../../../../x86_64-w64-mingw32/lib/../lib/libmsvcrt.a(dekes01205.o)
 .idata$4       0x00000000004392f8        0x8 D:/ITI/lectures/5-Intro to ES- Assaf/Tools/General Tools/mingw64/bin/../lib/gcc/x86_64-w64-mingw32/6.2.0/../../../../x86_64-w64-mingw32/lib/../lib/libmsvcrt.a(dekes01208.o)
 .idata$4       0x0000000000439300        0x8 D:/ITI/lectures/5-Intro to ES- Assaf/Tools/General Tools/mingw64/bin/../lib/gcc/x86_64-w64-mingw32/6.2.0/../../../../x86_64-w64-mingw32/lib/../lib/libmsvcrt.a(dekes01240.o)
 .idata$4       0x0000000000439308        0x8 D:/ITI/lectures/5-Intro to ES- Assaf/Tools/General Tools/mingw64/bin/../lib/gcc/x86_64-w64-mingw32/6.2.0/../../../../x86_64-w64-mingw32/lib/../lib/libmsvcrt.a(deket.o)
 .idata$4       0x0000000000439310        0x0 D:/ITI/lectures/5-Intro to ES- Assaf/Tools/General Tools/mingw64/bin/../lib/gcc/x86_64-w64-mingw32/6.2.0/../../../../x86_64-w64-mingw32/lib/../lib/libwinmm.a(dmceh.o)
 .idata$4       0x0000000000439310        0x8 D:/ITI/lectures/5-Intro to ES- Assaf/Tools/General Tools/mingw64/bin/../lib/gcc/x86_64-w64-mingw32/6.2.0/../../../../x86_64-w64-mingw32/lib/../lib/libwinmm.a(dmces00149.o)
 .idata$4       0x0000000000439318        0x8 D:/ITI/lectures/5-Intro to ES- Assaf/Tools/General Tools/mingw64/bin/../lib/gcc/x86_64-w64-mingw32/6.2.0/../../../../x86_64-w64-mingw32/lib/../lib/libwinmm.a(dmces00150.o)
 .idata$4       0x0000000000439320        0x8 D:/ITI/lectures/5-Intro to ES- Assaf/Tools/General Tools/mingw64/bin/../lib/gcc/x86_64-w64-mingw32/6.2.0/../../../../x86_64-w64-mingw32/lib/../lib/libwinmm.a(dmces00151.o)
 .idata$4       0x0000000000439328        0x8 D:/ITI/lectures/5-Intro to ES- Assaf/Tools/General Tools/mingw64/bin/../lib/gcc/x86_64-w64-mingw32/6.2.0/../../../../x86_64-w64-mingw32/lib/../lib/libwinmm.a(dmcet.o)
                0x0000000000439330                __IAT_start__ = .
 SORT(*)(.idata$5)
 .idata$5       0x0000000000439330        0x0 D:/ITI/lectures/5-Intro to ES- Assaf/Tools/General Tools/mingw64/bin/../lib/gcc/x86_64-w64-mingw32/6.2.0/../../../../x86_64-w64-mingw32/lib/../lib/libkernel32.a(dmmdh.o)
 .idata$5       0x0000000000439330        0x8 D:/ITI/lectures/5-Intro to ES- Assaf/Tools/General Tools/mingw64/bin/../lib/gcc/x86_64-w64-mingw32/6.2.0/../../../../x86_64-w64-mingw32/lib/../lib/libkernel32.a(dmmds00085.o)
                0x0000000000439330                __imp_CloseHandle
 .idata$5       0x0000000000439338        0x8 D:/ITI/lectures/5-Intro to ES- Assaf/Tools/General Tools/mingw64/bin/../lib/gcc/x86_64-w64-mingw32/6.2.0/../../../../x86_64-w64-mingw32/lib/../lib/libkernel32.a(dmmds00134.o)
                0x0000000000439338                __imp_CreateEventA
 .idata$5       0x0000000000439340        0x8 D:/ITI/lectures/5-Intro to ES- Assaf/Tools/General Tools/mingw64/bin/../lib/gcc/x86_64-w64-mingw32/6.2.0/../../../../x86_64-w64-mingw32/lib/../lib/libkernel32.a(dmmds00160.o)
                0x0000000000439340                __imp_CreateMutexA
 .idata$5       0x0000000000439348        0x8 D:/ITI/lectures/5-Intro to ES- Assaf/Tools/General Tools/mingw64/bin/../lib/gcc/x86_64-w64-mingw32/6.2.0/../../../../x86_64-w64-mingw32/lib/../lib/libkernel32.a(dmmds00186.o)
                0x0000000000439348                __imp_CreateThread
 .idata$5       0x0000000000439350        0x8 D:/ITI/lectures/5-Intro to ES- Assaf/Tools/General Tools/mingw64/bin/../lib/gcc/x86_64-w64-mingw32/6.2.0/../../../../x86_64-w64-mingw32/lib/../lib/libkernel32.a(dmmds00216.o)
                0x0000000000439350                __imp_DeleteCriticalSection
 .idata$5       0x0000000000439358        0x8 D:/ITI/lectures/5-Intro to ES- Assaf/Tools/General Tools/mingw64/bin/../lib/gcc/x86_64-w64-mingw32/6.2.0/../../../../x86_64-w64-mingw32/lib/../lib/libkernel32.a(dmmds00249.o)
                0x0000000000439358                __imp_EnterCriticalSection
 .idata$5       0x0000000000439360        0x8 D:/ITI/lectures/5-Intro to ES- Assaf/Tools/General Tools/mingw64/bin/../lib/gcc/x86_64-w64-mingw32/6.2.0/../../../../x86_64-w64-mingw32/lib/../lib/libkernel32.a(dmmds00295.o)
                0x0000000000439360                __imp_ExitThread
 .idata$5       0x0000000000439368        0x8 D:/ITI/lectures/5-Intro to ES- Assaf/Tools/General Tools/mingw64/bin/../lib/gcc/x86_64-w64-mingw32/6.2.0/../../../../x86_64-w64-mingw32/lib/../lib/libkernel32.a(dmmds00462.o)
                0x0000000000439368                __imp_GetCurrentProcess
 .idata$5       0x0000000000439370        0x8 D:/ITI/lectures/5-Intro to ES- Assaf/Tools/General Tools/mingw64/bin/../lib/gcc/x86_64-w64-mingw32/6.2.0/../../../../x86_64-w64-mingw32/lib/../lib/libkernel32.a(dmmds00463.o)
                0x0000000000439370                __imp_GetCurrentProcessId
 .idata$5       0x0000000000439378        0x8 D:/ITI/lectures/5-Intro to ES- Assaf/Tools/General Tools/mingw64/bin/../lib/gcc/x86_64-w64-mingw32/6.2.0/../../../../x86_64-w64-mingw32/lib/../lib/libkernel32.a(dmmds00466.o)
                0x0000000000439378                __imp_GetCurrentThread
 .idata$5       0x0000000000439380        0x8 D:/ITI/lectures/5-Intro to ES- Assaf/Tools/General Tools/mingw64/bin/../lib/gcc/x86_64-w64-mingw32/6.2.0/../../../../x86_64-w64-mingw32/lib/../lib/libkernel32.a(dmmds00467.o)
                0x0000000000439380                __imp_GetCurrentThreadId
 .idata$5       0x0000000000439388        0x8 D:/ITI/lectures/5-Intro to ES- Assaf/Tools/General Tools/mingw64/bin/../lib/gcc/x86_64-w64-mingw32/6.2.0/../../../../x86_64-w64-mingw32/lib/../lib/libkernel32.a(dmmds00529.o)
                0x0000000000439388                __imp_GetLastError
 .idata$5       0x0000000000439390        0x8 D:/ITI/lectures/5-Intro to ES- Assaf/Tools/General Tools/mingw64/bin/../lib/gcc/x86_64-w64-mingw32/6.2.0/../../../../x86_64-w64-mingw32/lib/../lib/libkernel32.a(dmmds00549.o)
                0x0000000000439390                __imp_GetModuleHandleA
 .idata$5       0x0000000000439398        0x8 D:/ITI/lectures/5-Intro to ES- Assaf/Tools/General Tools/mingw64/bin/../lib/gcc/x86_64-w64-mingw32/6.2.0/../../../../x86_64-w64-mingw32/lib/../lib/libkernel32.a(dmmds00599.o)
                0x0000000000439398                __imp_GetProcAddress
 .idata$5       0x00000000004393a0        0x8 D:/ITI/lectures/5-Intro to ES- Assaf/Tools/General Tools/mingw64/bin/../lib/gcc/x86_64-w64-mingw32/6.2.0/../../../../x86_64-w64-mingw32/lib/../lib/libkernel32.a(dmmds00628.o)
                0x00000000004393a0                __imp_GetStartupInfoA
 .idata$5       0x00000000004393a8        0x8 D:/ITI/lectures/5-Intro to ES- Assaf/Tools/General Tools/mingw64/bin/../lib/gcc/x86_64-w64-mingw32/6.2.0/../../../../x86_64-w64-mingw32/lib/../lib/libkernel32.a(dmmds00645.o)
                0x00000000004393a8                __imp_GetSystemInfo
 .idata$5       0x00000000004393b0        0x8 D:/ITI/lectures/5-Intro to ES- Assaf/Tools/General Tools/mingw64/bin/../lib/gcc/x86_64-w64-mingw32/6.2.0/../../../../x86_64-w64-mingw32/lib/../lib/libkernel32.a(dmmds00651.o)
                0x00000000004393b0                __imp_GetSystemTimeAsFileTime
 .idata$5       0x00000000004393b8        0x8 D:/ITI/lectures/5-Intro to ES- Assaf/Tools/General Tools/mingw64/bin/../lib/gcc/x86_64-w64-mingw32/6.2.0/../../../../x86_64-w64-mingw32/lib/../lib/libkernel32.a(dmmds00665.o)
                0x00000000004393b8                __imp_GetThreadContext
 .idata$5       0x00000000004393c0        0x8 D:/ITI/lectures/5-Intro to ES- Assaf/Tools/General Tools/mingw64/bin/../lib/gcc/x86_64-w64-mingw32/6.2.0/../../../../x86_64-w64-mingw32/lib/../lib/libkernel32.a(dmmds00678.o)
                0x00000000004393c0                __imp_GetTickCount
 .idata$5       0x00000000004393c8        0x8 D:/ITI/lectures/5-Intro to ES- Assaf/Tools/General Tools/mingw64/bin/../lib/gcc/x86_64-w64-mingw32/6.2.0/../../../../x86_64-w64-mingw32/lib/../lib/libkernel32.a(dmmds00762.o)
                0x00000000004393c8                __imp_InitializeCriticalSection
 .idata$5       0x00000000004393d0        0x8 D:/ITI/lectures/5-Intro to ES- Assaf/Tools/General Tools/mingw64/bin/../lib/gcc/x86_64-w64-mingw32/6.2.0/../../../../x86_64-w64-mingw32/lib/../lib/libkernel32.a(dmmds00844.o)
                0x00000000004393d0                __imp_LeaveCriticalSection
 .idata$5       0x00000000004393d8        0x8 D:/ITI/lectures/5-Intro to ES- Assaf/Tools/General Tools/mingw64/bin/../lib/gcc/x86_64-w64-mingw32/6.2.0/../../../../x86_64-w64-mingw32/lib/../lib/libkernel32.a(dmmds00958.o)
                0x00000000004393d8                __imp_QueryPerformanceCounter
 .idata$5       0x00000000004393e0        0x8 D:/ITI/lectures/5-Intro to ES- Assaf/Tools/General Tools/mingw64/bin/../lib/gcc/x86_64-w64-mingw32/6.2.0/../../../../x86_64-w64-mingw32/lib/../lib/libkernel32.a(dmmds00959.o)
                0x00000000004393e0                __imp_QueryPerformanceFrequency
 .idata$5       0x00000000004393e8        0x8 D:/ITI/lectures/5-Intro to ES- Assaf/Tools/General Tools/mingw64/bin/../lib/gcc/x86_64-w64-mingw32/6.2.0/../../../../x86_64-w64-mingw32/lib/../lib/libkernel32.a(dmmds01003.o)
                0x00000000004393e8                __imp_ReleaseMutex
 .idata$5       0x00000000004393f0        0x8 D:/ITI/lectures/5-Intro to ES- Assaf/Tools/General Tools/mingw64/bin/../lib/gcc/x86_64-w64-mingw32/6.2.0/../../../../x86_64-w64-mingw32/lib/../lib/libkernel32.a(dmmds01024.o)
                0x00000000004393f0                __imp_ResetEvent
 .idata$5       0x00000000004393f8        0x8 D:/ITI/lectures/5-Intro to ES- Assaf/Tools/General Tools/mingw64/bin/../lib/gcc/x86_64-w64-mingw32/6.2.0/../../../../x86_64-w64-mingw32/lib/../lib/libkernel32.a(dmmds01028.o)
                0x00000000004393f8                __imp_ResumeThread
 .idata$5       0x0000000000439400        0x8 D:/ITI/lectures/5-Intro to ES- Assaf/Tools/General Tools/mingw64/bin/../lib/gcc/x86_64-w64-mingw32/6.2.0/../../../../x86_64-w64-mingw32/lib/../lib/libkernel32.a(dmmds01029.o)
                0x0000000000439400                __imp_RtlAddFunctionTable
 .idata$5       0x0000000000439408        0x8 D:/ITI/lectures/5-Intro to ES- Assaf/Tools/General Tools/mingw64/bin/../lib/gcc/x86_64-w64-mingw32/6.2.0/../../../../x86_64-w64-mingw32/lib/../lib/libkernel32.a(dmmds01030.o)
                0x0000000000439408                __imp_RtlCaptureContext
 .idata$5       0x0000000000439410        0x8 D:/ITI/lectures/5-Intro to ES- Assaf/Tools/General Tools/mingw64/bin/../lib/gcc/x86_64-w64-mingw32/6.2.0/../../../../x86_64-w64-mingw32/lib/../lib/libkernel32.a(dmmds01037.o)
                0x0000000000439410                __imp_RtlLookupFunctionEntry
 .idata$5       0x0000000000439418        0x8 D:/ITI/lectures/5-Intro to ES- Assaf/Tools/General Tools/mingw64/bin/../lib/gcc/x86_64-w64-mingw32/6.2.0/../../../../x86_64-w64-mingw32/lib/../lib/libkernel32.a(dmmds01044.o)
                0x0000000000439418                __imp_RtlVirtualUnwind
 .idata$5       0x0000000000439420        0x8 D:/ITI/lectures/5-Intro to ES- Assaf/Tools/General Tools/mingw64/bin/../lib/gcc/x86_64-w64-mingw32/6.2.0/../../../../x86_64-w64-mingw32/lib/../lib/libkernel32.a(dmmds01067.o)
                0x0000000000439420                __imp_SetConsoleCtrlHandler
 .idata$5       0x0000000000439428        0x8 D:/ITI/lectures/5-Intro to ES- Assaf/Tools/General Tools/mingw64/bin/../lib/gcc/x86_64-w64-mingw32/6.2.0/../../../../x86_64-w64-mingw32/lib/../lib/libkernel32.a(dmmds01111.o)
                0x0000000000439428                __imp_SetEvent
 .idata$5       0x0000000000439430        0x8 D:/ITI/lectures/5-Intro to ES- Assaf/Tools/General Tools/mingw64/bin/../lib/gcc/x86_64-w64-mingw32/6.2.0/../../../../x86_64-w64-mingw32/lib/../lib/libkernel32.a(dmmds01146.o)
                0x0000000000439430                __imp_SetPriorityClass
 .idata$5       0x0000000000439438        0x8 D:/ITI/lectures/5-Intro to ES- Assaf/Tools/General Tools/mingw64/bin/../lib/gcc/x86_64-w64-mingw32/6.2.0/../../../../x86_64-w64-mingw32/lib/../lib/libkernel32.a(dmmds01165.o)
                0x0000000000439438                __imp_SetThreadAffinityMask
 .idata$5       0x0000000000439440        0x8 D:/ITI/lectures/5-Intro to ES- Assaf/Tools/General Tools/mingw64/bin/../lib/gcc/x86_64-w64-mingw32/6.2.0/../../../../x86_64-w64-mingw32/lib/../lib/libkernel32.a(dmmds01174.o)
                0x0000000000439440                __imp_SetThreadPriority
 .idata$5       0x0000000000439448        0x8 D:/ITI/lectures/5-Intro to ES- Assaf/Tools/General Tools/mingw64/bin/../lib/gcc/x86_64-w64-mingw32/6.2.0/../../../../x86_64-w64-mingw32/lib/../lib/libkernel32.a(dmmds01175.o)
                0x0000000000439448                __imp_SetThreadPriorityBoost
 .idata$5       0x0000000000439450        0x8 D:/ITI/lectures/5-Intro to ES- Assaf/Tools/General Tools/mingw64/bin/../lib/gcc/x86_64-w64-mingw32/6.2.0/../../../../x86_64-w64-mingw32/lib/../lib/libkernel32.a(dmmds01187.o)
                0x0000000000439450                __imp_SetUnhandledExceptionFilter
 .idata$5       0x0000000000439458        0x8 D:/ITI/lectures/5-Intro to ES- Assaf/Tools/General Tools/mingw64/bin/../lib/gcc/x86_64-w64-mingw32/6.2.0/../../../../x86_64-w64-mingw32/lib/../lib/libkernel32.a(dmmds01200.o)
                0x0000000000439458                __imp_Sleep
 .idata$5       0x0000000000439460        0x8 D:/ITI/lectures/5-Intro to ES- Assaf/Tools/General Tools/mingw64/bin/../lib/gcc/x86_64-w64-mingw32/6.2.0/../../../../x86_64-w64-mingw32/lib/../lib/libkernel32.a(dmmds01208.o)
                0x0000000000439460                __imp_SuspendThread
 .idata$5       0x0000000000439468        0x8 D:/ITI/lectures/5-Intro to ES- Assaf/Tools/General Tools/mingw64/bin/../lib/gcc/x86_64-w64-mingw32/6.2.0/../../../../x86_64-w64-mingw32/lib/../lib/libkernel32.a(dmmds01214.o)
                0x0000000000439468                __imp_TerminateProcess
 .idata$5       0x0000000000439470        0x8 D:/ITI/lectures/5-Intro to ES- Assaf/Tools/General Tools/mingw64/bin/../lib/gcc/x86_64-w64-mingw32/6.2.0/../../../../x86_64-w64-mingw32/lib/../lib/libkernel32.a(dmmds01215.o)
                0x0000000000439470                __imp_TerminateThread
 .idata$5       0x0000000000439478        0x8 D:/ITI/lectures/5-Intro to ES- Assaf/Tools/General Tools/mingw64/bin/../lib/gcc/x86_64-w64-mingw32/6.2.0/../../../../x86_64-w64-mingw32/lib/../lib/libkernel32.a(dmmds01221.o)
                0x0000000000439478                __imp_TlsGetValue
 .idata$5       0x0000000000439480        0x8 D:/ITI/lectures/5-Intro to ES- Assaf/Tools/General Tools/mingw64/bin/../lib/gcc/x86_64-w64-mingw32/6.2.0/../../../../x86_64-w64-mingw32/lib/../lib/libkernel32.a(dmmds01234.o)
                0x0000000000439480                __imp_UnhandledExceptionFilter
 .idata$5       0x0000000000439488        0x8 D:/ITI/lectures/5-Intro to ES- Assaf/Tools/General Tools/mingw64/bin/../lib/gcc/x86_64-w64-mingw32/6.2.0/../../../../x86_64-w64-mingw32/lib/../lib/libkernel32.a(dmmds01264.o)
                0x0000000000439488                __imp_VirtualProtect
 .idata$5       0x0000000000439490        0x8 D:/ITI/lectures/5-Intro to ES- Assaf/Tools/General Tools/mingw64/bin/../lib/gcc/x86_64-w64-mingw32/6.2.0/../../../../x86_64-w64-mingw32/lib/../lib/libkernel32.a(dmmds01266.o)
                0x0000000000439490                __imp_VirtualQuery
 .idata$5       0x0000000000439498        0x8 D:/ITI/lectures/5-Intro to ES- Assaf/Tools/General Tools/mingw64/bin/../lib/gcc/x86_64-w64-mingw32/6.2.0/../../../../x86_64-w64-mingw32/lib/../lib/libkernel32.a(dmmds01272.o)
                0x0000000000439498                __imp_WaitForMultipleObjects
 .idata$5       0x00000000004394a0        0x8 D:/ITI/lectures/5-Intro to ES- Assaf/Tools/General Tools/mingw64/bin/../lib/gcc/x86_64-w64-mingw32/6.2.0/../../../../x86_64-w64-mingw32/lib/../lib/libkernel32.a(dmmds01274.o)
                0x00000000004394a0                __imp_WaitForSingleObject
 .idata$5       0x00000000004394a8        0x8 D:/ITI/lectures/5-Intro to ES- Assaf/Tools/General Tools/mingw64/bin/../lib/gcc/x86_64-w64-mingw32/6.2.0/../../../../x86_64-w64-mingw32/lib/../lib/libkernel32.a(dmmdt.o)
 .idata$5       0x00000000004394b0        0x0 D:/ITI/lectures/5-Intro to ES- Assaf/Tools/General Tools/mingw64/bin/../lib/gcc/x86_64-w64-mingw32/6.2.0/../../../../x86_64-w64-mingw32/lib/../lib/libmsvcrt.a(dekeh.o)
 .idata$5       0x00000000004394b0        0x8 D:/ITI/lectures/5-Intro to ES- Assaf/Tools/General Tools/mingw64/bin/../lib/gcc/x86_64-w64-mingw32/6.2.0/../../../../x86_64-w64-mingw32/lib/../lib/libmsvcrt.a(dekes00055.o)
                0x00000000004394b0                __imp___C_specific_handler
 .idata$5       0x00000000004394b8        0x8 D:/ITI/lectures/5-Intro to ES- Assaf/Tools/General Tools/mingw64/bin/../lib/gcc/x86_64-w64-mingw32/6.2.0/../../../../x86_64-w64-mingw32/lib/../lib/libmsvcrt.a(dekes00078.o)
                0x00000000004394b8                __imp___dllonexit
 .idata$5       0x00000000004394c0        0x8 D:/ITI/lectures/5-Intro to ES- Assaf/Tools/General Tools/mingw64/bin/../lib/gcc/x86_64-w64-mingw32/6.2.0/../../../../x86_64-w64-mingw32/lib/../lib/libmsvcrt.a(dekes00081.o)
                0x00000000004394c0                __imp___getmainargs
 .idata$5       0x00000000004394c8        0x8 D:/ITI/lectures/5-Intro to ES- Assaf/Tools/General Tools/mingw64/bin/../lib/gcc/x86_64-w64-mingw32/6.2.0/../../../../x86_64-w64-mingw32/lib/../lib/libmsvcrt.a(dekes00082.o)
                0x00000000004394c8                __imp___initenv
 .idata$5       0x00000000004394d0        0x8 D:/ITI/lectures/5-Intro to ES- Assaf/Tools/General Tools/mingw64/bin/../lib/gcc/x86_64-w64-mingw32/6.2.0/../../../../x86_64-w64-mingw32/lib/../lib/libmsvcrt.a(dekes00083.o)
                0x00000000004394d0                __imp___iob_func
 .idata$5       0x00000000004394d8        0x8 D:/ITI/lectures/5-Intro to ES- Assaf/Tools/General Tools/mingw64/bin/../lib/gcc/x86_64-w64-mingw32/6.2.0/../../../../x86_64-w64-mingw32/lib/../lib/libmsvcrt.a(dekes00091.o)
                0x00000000004394d8                __imp___lconv_init
 .idata$5       0x00000000004394e0        0x8 D:/ITI/lectures/5-Intro to ES- Assaf/Tools/General Tools/mingw64/bin/../lib/gcc/x86_64-w64-mingw32/6.2.0/../../../../x86_64-w64-mingw32/lib/../lib/libmsvcrt.a(dekes00097.o)
                0x00000000004394e0                __imp___set_app_type
 .idata$5       0x00000000004394e8        0x8 D:/ITI/lectures/5-Intro to ES- Assaf/Tools/General Tools/mingw64/bin/../lib/gcc/x86_64-w64-mingw32/6.2.0/../../../../x86_64-w64-mingw32/lib/../lib/libmsvcrt.a(dekes00099.o)
                0x00000000004394e8                __imp___setusermatherr
 .idata$5       0x00000000004394f0        0x8 D:/ITI/lectures/5-Intro to ES- Assaf/Tools/General Tools/mingw64/bin/../lib/gcc/x86_64-w64-mingw32/6.2.0/../../../../x86_64-w64-mingw32/lib/../lib/libmsvcrt.a(dekes00116.o)
                0x00000000004394f0                __imp__acmdln
 .idata$5       0x00000000004394f8        0x8 D:/ITI/lectures/5-Intro to ES- Assaf/Tools/General Tools/mingw64/bin/../lib/gcc/x86_64-w64-mingw32/6.2.0/../../../../x86_64-w64-mingw32/lib/../lib/libmsvcrt.a(dekes00123.o)
                0x00000000004394f8                __imp__amsg_exit
 .idata$5       0x0000000000439500        0x8 D:/ITI/lectures/5-Intro to ES- Assaf/Tools/General Tools/mingw64/bin/../lib/gcc/x86_64-w64-mingw32/6.2.0/../../../../x86_64-w64-mingw32/lib/../lib/libmsvcrt.a(dekes00141.o)
                0x0000000000439500                __imp__cexit
 .idata$5       0x0000000000439508        0x8 D:/ITI/lectures/5-Intro to ES- Assaf/Tools/General Tools/mingw64/bin/../lib/gcc/x86_64-w64-mingw32/6.2.0/../../../../x86_64-w64-mingw32/lib/../lib/libmsvcrt.a(dekes00252.o)
                0x0000000000439508                __imp__fmode
 .idata$5       0x0000000000439510        0x8 D:/ITI/lectures/5-Intro to ES- Assaf/Tools/General Tools/mingw64/bin/../lib/gcc/x86_64-w64-mingw32/6.2.0/../../../../x86_64-w64-mingw32/lib/../lib/libmsvcrt.a(dekes00330.o)
                0x0000000000439510                __imp__initterm
 .idata$5       0x0000000000439518        0x8 D:/ITI/lectures/5-Intro to ES- Assaf/Tools/General Tools/mingw64/bin/../lib/gcc/x86_64-w64-mingw32/6.2.0/../../../../x86_64-w64-mingw32/lib/../lib/libmsvcrt.a(dekes00438.o)
                0x0000000000439518                __imp__lock
 .idata$5       0x0000000000439520        0x8 D:/ITI/lectures/5-Intro to ES- Assaf/Tools/General Tools/mingw64/bin/../lib/gcc/x86_64-w64-mingw32/6.2.0/../../../../x86_64-w64-mingw32/lib/../lib/libmsvcrt.a(dekes00611.o)
                0x0000000000439520                __imp__onexit
 .idata$5       0x0000000000439528        0x8 D:/ITI/lectures/5-Intro to ES- Assaf/Tools/General Tools/mingw64/bin/../lib/gcc/x86_64-w64-mingw32/6.2.0/../../../../x86_64-w64-mingw32/lib/../lib/libmsvcrt.a(dekes00820.o)
                0x0000000000439528                __imp__unlock
 .idata$5       0x0000000000439530        0x8 D:/ITI/lectures/5-Intro to ES- Assaf/Tools/General Tools/mingw64/bin/../lib/gcc/x86_64-w64-mingw32/6.2.0/../../../../x86_64-w64-mingw32/lib/../lib/libmsvcrt.a(dekes01028.o)
                0x0000000000439530                __imp_abort
 .idata$5       0x0000000000439538        0x8 D:/ITI/lectures/5-Intro to ES- Assaf/Tools/General Tools/mingw64/bin/../lib/gcc/x86_64-w64-mingw32/6.2.0/../../../../x86_64-w64-mingw32/lib/../lib/libmsvcrt.a(dekes01048.o)
                0x0000000000439538                __imp_calloc
 .idata$5       0x0000000000439540        0x8 D:/ITI/lectures/5-Intro to ES- Assaf/Tools/General Tools/mingw64/bin/../lib/gcc/x86_64-w64-mingw32/6.2.0/../../../../x86_64-w64-mingw32/lib/../lib/libmsvcrt.a(dekes01061.o)
                0x0000000000439540                __imp_exit
 .idata$5       0x0000000000439548        0x8 D:/ITI/lectures/5-Intro to ES- Assaf/Tools/General Tools/mingw64/bin/../lib/gcc/x86_64-w64-mingw32/6.2.0/../../../../x86_64-w64-mingw32/lib/../lib/libmsvcrt.a(dekes01065.o)
                0x0000000000439548                __imp_fclose
 .idata$5       0x0000000000439550        0x8 D:/ITI/lectures/5-Intro to ES- Assaf/Tools/General Tools/mingw64/bin/../lib/gcc/x86_64-w64-mingw32/6.2.0/../../../../x86_64-w64-mingw32/lib/../lib/libmsvcrt.a(dekes01068.o)
                0x0000000000439550                __imp_fflush
 .idata$5       0x0000000000439558        0x8 D:/ITI/lectures/5-Intro to ES- Assaf/Tools/General Tools/mingw64/bin/../lib/gcc/x86_64-w64-mingw32/6.2.0/../../../../x86_64-w64-mingw32/lib/../lib/libmsvcrt.a(dekes01078.o)
                0x0000000000439558                __imp_fopen
 .idata$5       0x0000000000439560        0x8 D:/ITI/lectures/5-Intro to ES- Assaf/Tools/General Tools/mingw64/bin/../lib/gcc/x86_64-w64-mingw32/6.2.0/../../../../x86_64-w64-mingw32/lib/../lib/libmsvcrt.a(dekes01080.o)
                0x0000000000439560                __imp_fprintf
 .idata$5       0x0000000000439568        0x8 D:/ITI/lectures/5-Intro to ES- Assaf/Tools/General Tools/mingw64/bin/../lib/gcc/x86_64-w64-mingw32/6.2.0/../../../../x86_64-w64-mingw32/lib/../lib/libmsvcrt.a(dekes01087.o)
                0x0000000000439568                __imp_free
 .idata$5       0x0000000000439570        0x8 D:/ITI/lectures/5-Intro to ES- Assaf/Tools/General Tools/mingw64/bin/../lib/gcc/x86_64-w64-mingw32/6.2.0/../../../../x86_64-w64-mingw32/lib/../lib/libmsvcrt.a(dekes01099.o)
                0x0000000000439570                __imp_fwrite
 .idata$5       0x0000000000439578        0x8 D:/ITI/lectures/5-Intro to ES- Assaf/Tools/General Tools/mingw64/bin/../lib/gcc/x86_64-w64-mingw32/6.2.0/../../../../x86_64-w64-mingw32/lib/../lib/libmsvcrt.a(dekes01146.o)
                0x0000000000439578                __imp_malloc
 .idata$5       0x0000000000439580        0x8 D:/ITI/lectures/5-Intro to ES- Assaf/Tools/General Tools/mingw64/bin/../lib/gcc/x86_64-w64-mingw32/6.2.0/../../../../x86_64-w64-mingw32/lib/../lib/libmsvcrt.a(dekes01153.o)
                0x0000000000439580                __imp_memcmp
 .idata$5       0x0000000000439588        0x8 D:/ITI/lectures/5-Intro to ES- Assaf/Tools/General Tools/mingw64/bin/../lib/gcc/x86_64-w64-mingw32/6.2.0/../../../../x86_64-w64-mingw32/lib/../lib/libmsvcrt.a(dekes01154.o)
                0x0000000000439588                __imp_memcpy
 .idata$5       0x0000000000439590        0x8 D:/ITI/lectures/5-Intro to ES- Assaf/Tools/General Tools/mingw64/bin/../lib/gcc/x86_64-w64-mingw32/6.2.0/../../../../x86_64-w64-mingw32/lib/../lib/libmsvcrt.a(dekes01156.o)
                0x0000000000439590                __imp_memset
 .idata$5       0x0000000000439598        0x8 D:/ITI/lectures/5-Intro to ES- Assaf/Tools/General Tools/mingw64/bin/../lib/gcc/x86_64-w64-mingw32/6.2.0/../../../../x86_64-w64-mingw32/lib/../lib/libmsvcrt.a(dekes01163.o)
                0x0000000000439598                __imp_printf
 .idata$5       0x00000000004395a0        0x8 D:/ITI/lectures/5-Intro to ES- Assaf/Tools/General Tools/mingw64/bin/../lib/gcc/x86_64-w64-mingw32/6.2.0/../../../../x86_64-w64-mingw32/lib/../lib/libmsvcrt.a(dekes01166.o)
                0x00000000004395a0                __imp_putchar
 .idata$5       0x00000000004395a8        0x8 D:/ITI/lectures/5-Intro to ES- Assaf/Tools/General Tools/mingw64/bin/../lib/gcc/x86_64-w64-mingw32/6.2.0/../../../../x86_64-w64-mingw32/lib/../lib/libmsvcrt.a(dekes01167.o)
                0x00000000004395a8                __imp_puts
 .idata$5       0x00000000004395b0        0x8 D:/ITI/lectures/5-Intro to ES- Assaf/Tools/General Tools/mingw64/bin/../lib/gcc/x86_64-w64-mingw32/6.2.0/../../../../x86_64-w64-mingw32/lib/../lib/libmsvcrt.a(dekes01173.o)
                0x00000000004395b0                __imp_rand
 .idata$5       0x00000000004395b8        0x8 D:/ITI/lectures/5-Intro to ES- Assaf/Tools/General Tools/mingw64/bin/../lib/gcc/x86_64-w64-mingw32/6.2.0/../../../../x86_64-w64-mingw32/lib/../lib/libmsvcrt.a(dekes01184.o)
                0x00000000004395b8                __imp_signal
 .idata$5       0x00000000004395c0        0x8 D:/ITI/lectures/5-Intro to ES- Assaf/Tools/General Tools/mingw64/bin/../lib/gcc/x86_64-w64-mingw32/6.2.0/../../../../x86_64-w64-mingw32/lib/../lib/libmsvcrt.a(dekes01189.o)
                0x00000000004395c0                __imp_sprintf
 .idata$5       0x00000000004395c8        0x8 D:/ITI/lectures/5-Intro to ES- Assaf/Tools/General Tools/mingw64/bin/../lib/gcc/x86_64-w64-mingw32/6.2.0/../../../../x86_64-w64-mingw32/lib/../lib/libmsvcrt.a(dekes01198.o)
                0x00000000004395c8                __imp_strcmp
 .idata$5       0x00000000004395d0        0x8 D:/ITI/lectures/5-Intro to ES- Assaf/Tools/General Tools/mingw64/bin/../lib/gcc/x86_64-w64-mingw32/6.2.0/../../../../x86_64-w64-mingw32/lib/../lib/libmsvcrt.a(dekes01205.o)
                0x00000000004395d0                __imp_strlen
 .idata$5       0x00000000004395d8        0x8 D:/ITI/lectures/5-Intro to ES- Assaf/Tools/General Tools/mingw64/bin/../lib/gcc/x86_64-w64-mingw32/6.2.0/../../../../x86_64-w64-mingw32/lib/../lib/libmsvcrt.a(dekes01208.o)
                0x00000000004395d8                __imp_strncmp
 .idata$5       0x00000000004395e0        0x8 D:/ITI/lectures/5-Intro to ES- Assaf/Tools/General Tools/mingw64/bin/../lib/gcc/x86_64-w64-mingw32/6.2.0/../../../../x86_64-w64-mingw32/lib/../lib/libmsvcrt.a(dekes01240.o)
                0x00000000004395e0                __imp_vfprintf
 .idata$5       0x00000000004395e8        0x8 D:/ITI/lectures/5-Intro to ES- Assaf/Tools/General Tools/mingw64/bin/../lib/gcc/x86_64-w64-mingw32/6.2.0/../../../../x86_64-w64-mingw32/lib/../lib/libmsvcrt.a(deket.o)
 .idata$5       0x00000000004395f0        0x0 D:/ITI/lectures/5-Intro to ES- Assaf/Tools/General Tools/mingw64/bin/../lib/gcc/x86_64-w64-mingw32/6.2.0/../../../../x86_64-w64-mingw32/lib/../lib/libwinmm.a(dmceh.o)
 .idata$5       0x00000000004395f0        0x8 D:/ITI/lectures/5-Intro to ES- Assaf/Tools/General Tools/mingw64/bin/../lib/gcc/x86_64-w64-mingw32/6.2.0/../../../../x86_64-w64-mingw32/lib/../lib/libwinmm.a(dmces00149.o)
                0x00000000004395f0                __imp_timeBeginPeriod
 .idata$5       0x00000000004395f8        0x8 D:/ITI/lectures/5-Intro to ES- Assaf/Tools/General Tools/mingw64/bin/../lib/gcc/x86_64-w64-mingw32/6.2.0/../../../../x86_64-w64-mingw32/lib/../lib/libwinmm.a(dmces00150.o)
                0x00000000004395f8                __imp_timeEndPeriod
 .idata$5       0x0000000000439600        0x8 D:/ITI/lectures/5-Intro to ES- Assaf/Tools/General Tools/mingw64/bin/../lib/gcc/x86_64-w64-mingw32/6.2.0/../../../../x86_64-w64-mingw32/lib/../lib/libwinmm.a(dmces00151.o)
                0x0000000000439600                __imp_timeGetDevCaps
 .idata$5       0x0000000000439608        0x8 D:/ITI/lectures/5-Intro to ES- Assaf/Tools/General Tools/mingw64/bin/../lib/gcc/x86_64-w64-mingw32/6.2.0/../../../../x86_64-w64-mingw32/lib/../lib/libwinmm.a(dmcet.o)
                0x0000000000439610                __IAT_end__ = .
 SORT(*)(.idata$6)
 .idata$6       0x0000000000439610        0xe D:/ITI/lectures/5-Intro to ES- Assaf/Tools/General Tools/mingw64/bin/../lib/gcc/x86_64-w64-mingw32/6.2.0/../../../../x86_64-w64-mingw32/lib/../lib/libkernel32.a(dmmds00085.o)
 .idata$6       0x000000000043961e       0x10 D:/ITI/lectures/5-Intro to ES- Assaf/Tools/General Tools/mingw64/bin/../lib/gcc/x86_64-w64-mingw32/6.2.0/../../../../x86_64-w64-mingw32/lib/../lib/libkernel32.a(dmmds00134.o)
 .idata$6       0x000000000043962e       0x10 D:/ITI/lectures/5-Intro to ES- Assaf/Tools/General Tools/mingw64/bin/../lib/gcc/x86_64-w64-mingw32/6.2.0/../../../../x86_64-w64-mingw32/lib/../lib/libkernel32.a(dmmds00160.o)
 .idata$6       0x000000000043963e       0x10 D:/ITI/lectures/5-Intro to ES- Assaf/Tools/General Tools/mingw64/bin/../lib/gcc/x86_64-w64-mingw32/6.2.0/../../../../x86_64-w64-mingw32/lib/../lib/libkernel32.a(dmmds00186.o)
 .idata$6       0x000000000043964e       0x18 D:/ITI/lectures/5-Intro to ES- Assaf/Tools/General Tools/mingw64/bin/../lib/gcc/x86_64-w64-mingw32/6.2.0/../../../../x86_64-w64-mingw32/lib/../lib/libkernel32.a(dmmds00216.o)
 .idata$6       0x0000000000439666       0x18 D:/ITI/lectures/5-Intro to ES- Assaf/Tools/General Tools/mingw64/bin/../lib/gcc/x86_64-w64-mingw32/6.2.0/../../../../x86_64-w64-mingw32/lib/../lib/libkernel32.a(dmmds00249.o)
 .idata$6       0x000000000043967e        0xe D:/ITI/lectures/5-Intro to ES- Assaf/Tools/General Tools/mingw64/bin/../lib/gcc/x86_64-w64-mingw32/6.2.0/../../../../x86_64-w64-mingw32/lib/../lib/libkernel32.a(dmmds00295.o)
 .idata$6       0x000000000043968c       0x14 D:/ITI/lectures/5-Intro to ES- Assaf/Tools/General Tools/mingw64/bin/../lib/gcc/x86_64-w64-mingw32/6.2.0/../../../../x86_64-w64-mingw32/lib/../lib/libkernel32.a(dmmds00462.o)
 .idata$6       0x00000000004396a0       0x16 D:/ITI/lectures/5-Intro to ES- Assaf/Tools/General Tools/mingw64/bin/../lib/gcc/x86_64-w64-mingw32/6.2.0/../../../../x86_64-w64-mingw32/lib/../lib/libkernel32.a(dmmds00463.o)
 .idata$6       0x00000000004396b6       0x14 D:/ITI/lectures/5-Intro to ES- Assaf/Tools/General Tools/mingw64/bin/../lib/gcc/x86_64-w64-mingw32/6.2.0/../../../../x86_64-w64-mingw32/lib/../lib/libkernel32.a(dmmds00466.o)
 .idata$6       0x00000000004396ca       0x16 D:/ITI/lectures/5-Intro to ES- Assaf/Tools/General Tools/mingw64/bin/../lib/gcc/x86_64-w64-mingw32/6.2.0/../../../../x86_64-w64-mingw32/lib/../lib/libkernel32.a(dmmds00467.o)
 .idata$6       0x00000000004396e0       0x10 D:/ITI/lectures/5-Intro to ES- Assaf/Tools/General Tools/mingw64/bin/../lib/gcc/x86_64-w64-mingw32/6.2.0/../../../../x86_64-w64-mingw32/lib/../lib/libkernel32.a(dmmds00529.o)
 .idata$6       0x00000000004396f0       0x14 D:/ITI/lectures/5-Intro to ES- Assaf/Tools/General Tools/mingw64/bin/../lib/gcc/x86_64-w64-mingw32/6.2.0/../../../../x86_64-w64-mingw32/lib/../lib/libkernel32.a(dmmds00549.o)
 .idata$6       0x0000000000439704       0x12 D:/ITI/lectures/5-Intro to ES- Assaf/Tools/General Tools/mingw64/bin/../lib/gcc/x86_64-w64-mingw32/6.2.0/../../../../x86_64-w64-mingw32/lib/../lib/libkernel32.a(dmmds00599.o)
 .idata$6       0x0000000000439716       0x12 D:/ITI/lectures/5-Intro to ES- Assaf/Tools/General Tools/mingw64/bin/../lib/gcc/x86_64-w64-mingw32/6.2.0/../../../../x86_64-w64-mingw32/lib/../lib/libkernel32.a(dmmds00628.o)
 .idata$6       0x0000000000439728       0x10 D:/ITI/lectures/5-Intro to ES- Assaf/Tools/General Tools/mingw64/bin/../lib/gcc/x86_64-w64-mingw32/6.2.0/../../../../x86_64-w64-mingw32/lib/../lib/libkernel32.a(dmmds00645.o)
 .idata$6       0x0000000000439738       0x1a D:/ITI/lectures/5-Intro to ES- Assaf/Tools/General Tools/mingw64/bin/../lib/gcc/x86_64-w64-mingw32/6.2.0/../../../../x86_64-w64-mingw32/lib/../lib/libkernel32.a(dmmds00651.o)
 .idata$6       0x0000000000439752       0x14 D:/ITI/lectures/5-Intro to ES- Assaf/Tools/General Tools/mingw64/bin/../lib/gcc/x86_64-w64-mingw32/6.2.0/../../../../x86_64-w64-mingw32/lib/../lib/libkernel32.a(dmmds00665.o)
 .idata$6       0x0000000000439766       0x10 D:/ITI/lectures/5-Intro to ES- Assaf/Tools/General Tools/mingw64/bin/../lib/gcc/x86_64-w64-mingw32/6.2.0/../../../../x86_64-w64-mingw32/lib/../lib/libkernel32.a(dmmds00678.o)
 .idata$6       0x0000000000439776       0x1c D:/ITI/lectures/5-Intro to ES- Assaf/Tools/General Tools/mingw64/bin/../lib/gcc/x86_64-w64-mingw32/6.2.0/../../../../x86_64-w64-mingw32/lib/../lib/libkernel32.a(dmmds00762.o)
 .idata$6       0x0000000000439792       0x18 D:/ITI/lectures/5-Intro to ES- Assaf/Tools/General Tools/mingw64/bin/../lib/gcc/x86_64-w64-mingw32/6.2.0/../../../../x86_64-w64-mingw32/lib/../lib/libkernel32.a(dmmds00844.o)
 .idata$6       0x00000000004397aa       0x1a D:/ITI/lectures/5-Intro to ES- Assaf/Tools/General Tools/mingw64/bin/../lib/gcc/x86_64-w64-mingw32/6.2.0/../../../../x86_64-w64-mingw32/lib/../lib/libkernel32.a(dmmds00958.o)
 .idata$6       0x00000000004397c4       0x1c D:/ITI/lectures/5-Intro to ES- Assaf/Tools/General Tools/mingw64/bin/../lib/gcc/x86_64-w64-mingw32/6.2.0/../../../../x86_64-w64-mingw32/lib/../lib/libkernel32.a(dmmds00959.o)
 .idata$6       0x00000000004397e0       0x10 D:/ITI/lectures/5-Intro to ES- Assaf/Tools/General Tools/mingw64/bin/../lib/gcc/x86_64-w64-mingw32/6.2.0/../../../../x86_64-w64-mingw32/lib/../lib/libkernel32.a(dmmds01003.o)
 .idata$6       0x00000000004397f0        0xe D:/ITI/lectures/5-Intro to ES- Assaf/Tools/General Tools/mingw64/bin/../lib/gcc/x86_64-w64-mingw32/6.2.0/../../../../x86_64-w64-mingw32/lib/../lib/libkernel32.a(dmmds01024.o)
 .idata$6       0x00000000004397fe       0x10 D:/ITI/lectures/5-Intro to ES- Assaf/Tools/General Tools/mingw64/bin/../lib/gcc/x86_64-w64-mingw32/6.2.0/../../../../x86_64-w64-mingw32/lib/../lib/libkernel32.a(dmmds01028.o)
 .idata$6       0x000000000043980e       0x16 D:/ITI/lectures/5-Intro to ES- Assaf/Tools/General Tools/mingw64/bin/../lib/gcc/x86_64-w64-mingw32/6.2.0/../../../../x86_64-w64-mingw32/lib/../lib/libkernel32.a(dmmds01029.o)
 .idata$6       0x0000000000439824       0x14 D:/ITI/lectures/5-Intro to ES- Assaf/Tools/General Tools/mingw64/bin/../lib/gcc/x86_64-w64-mingw32/6.2.0/../../../../x86_64-w64-mingw32/lib/../lib/libkernel32.a(dmmds01030.o)
 .idata$6       0x0000000000439838       0x1a D:/ITI/lectures/5-Intro to ES- Assaf/Tools/General Tools/mingw64/bin/../lib/gcc/x86_64-w64-mingw32/6.2.0/../../../../x86_64-w64-mingw32/lib/../lib/libkernel32.a(dmmds01037.o)
 .idata$6       0x0000000000439852       0x14 D:/ITI/lectures/5-Intro to ES- Assaf/Tools/General Tools/mingw64/bin/../lib/gcc/x86_64-w64-mingw32/6.2.0/../../../../x86_64-w64-mingw32/lib/../lib/libkernel32.a(dmmds01044.o)
 .idata$6       0x0000000000439866       0x18 D:/ITI/lectures/5-Intro to ES- Assaf/Tools/General Tools/mingw64/bin/../lib/gcc/x86_64-w64-mingw32/6.2.0/../../../../x86_64-w64-mingw32/lib/../lib/libkernel32.a(dmmds01067.o)
 .idata$6       0x000000000043987e        0xc D:/ITI/lectures/5-Intro to ES- Assaf/Tools/General Tools/mingw64/bin/../lib/gcc/x86_64-w64-mingw32/6.2.0/../../../../x86_64-w64-mingw32/lib/../lib/libkernel32.a(dmmds01111.o)
 .idata$6       0x000000000043988a       0x14 D:/ITI/lectures/5-Intro to ES- Assaf/Tools/General Tools/mingw64/bin/../lib/gcc/x86_64-w64-mingw32/6.2.0/../../../../x86_64-w64-mingw32/lib/../lib/libkernel32.a(dmmds01146.o)
 .idata$6       0x000000000043989e       0x18 D:/ITI/lectures/5-Intro to ES- Assaf/Tools/General Tools/mingw64/bin/../lib/gcc/x86_64-w64-mingw32/6.2.0/../../../../x86_64-w64-mingw32/lib/../lib/libkernel32.a(dmmds01165.o)
 .idata$6       0x00000000004398b6       0x14 D:/ITI/lectures/5-Intro to ES- Assaf/Tools/General Tools/mingw64/bin/../lib/gcc/x86_64-w64-mingw32/6.2.0/../../../../x86_64-w64-mingw32/lib/../lib/libkernel32.a(dmmds01174.o)
 .idata$6       0x00000000004398ca       0x1a D:/ITI/lectures/5-Intro to ES- Assaf/Tools/General Tools/mingw64/bin/../lib/gcc/x86_64-w64-mingw32/6.2.0/../../../../x86_64-w64-mingw32/lib/../lib/libkernel32.a(dmmds01175.o)
 .idata$6       0x00000000004398e4       0x1e D:/ITI/lectures/5-Intro to ES- Assaf/Tools/General Tools/mingw64/bin/../lib/gcc/x86_64-w64-mingw32/6.2.0/../../../../x86_64-w64-mingw32/lib/../lib/libkernel32.a(dmmds01187.o)
 .idata$6       0x0000000000439902        0x8 D:/ITI/lectures/5-Intro to ES- Assaf/Tools/General Tools/mingw64/bin/../lib/gcc/x86_64-w64-mingw32/6.2.0/../../../../x86_64-w64-mingw32/lib/../lib/libkernel32.a(dmmds01200.o)
 .idata$6       0x000000000043990a       0x10 D:/ITI/lectures/5-Intro to ES- Assaf/Tools/General Tools/mingw64/bin/../lib/gcc/x86_64-w64-mingw32/6.2.0/../../../../x86_64-w64-mingw32/lib/../lib/libkernel32.a(dmmds01208.o)
 .idata$6       0x000000000043991a       0x14 D:/ITI/lectures/5-Intro to ES- Assaf/Tools/General Tools/mingw64/bin/../lib/gcc/x86_64-w64-mingw32/6.2.0/../../../../x86_64-w64-mingw32/lib/../lib/libkernel32.a(dmmds01214.o)
 .idata$6       0x000000000043992e       0x12 D:/ITI/lectures/5-Intro to ES- Assaf/Tools/General Tools/mingw64/bin/../lib/gcc/x86_64-w64-mingw32/6.2.0/../../../../x86_64-w64-mingw32/lib/../lib/libkernel32.a(dmmds01215.o)
 .idata$6       0x0000000000439940        0xe D:/ITI/lectures/5-Intro to ES- Assaf/Tools/General Tools/mingw64/bin/../lib/gcc/x86_64-w64-mingw32/6.2.0/../../../../x86_64-w64-mingw32/lib/../lib/libkernel32.a(dmmds01221.o)
 .idata$6       0x000000000043994e       0x1c D:/ITI/lectures/5-Intro to ES- Assaf/Tools/General Tools/mingw64/bin/../lib/gcc/x86_64-w64-mingw32/6.2.0/../../../../x86_64-w64-mingw32/lib/../lib/libkernel32.a(dmmds01234.o)
 .idata$6       0x000000000043996a       0x12 D:/ITI/lectures/5-Intro to ES- Assaf/Tools/General Tools/mingw64/bin/../lib/gcc/x86_64-w64-mingw32/6.2.0/../../../../x86_64-w64-mingw32/lib/../lib/libkernel32.a(dmmds01264.o)
 .idata$6       0x000000000043997c       0x10 D:/ITI/lectures/5-Intro to ES- Assaf/Tools/General Tools/mingw64/bin/../lib/gcc/x86_64-w64-mingw32/6.2.0/../../../../x86_64-w64-mingw32/lib/../lib/libkernel32.a(dmmds01266.o)
 .idata$6       0x000000000043998c       0x1a D:/ITI/lectures/5-Intro to ES- Assaf/Tools/General Tools/mingw64/bin/../lib/gcc/x86_64-w64-mingw32/6.2.0/../../../../x86_64-w64-mingw32/lib/../lib/libkernel32.a(dmmds01272.o)
 .idata$6       0x00000000004399a6       0x16 D:/ITI/lectures/5-Intro to ES- Assaf/Tools/General Tools/mingw64/bin/../lib/gcc/x86_64-w64-mingw32/6.2.0/../../../../x86_64-w64-mingw32/lib/../lib/libkernel32.a(dmmds01274.o)
 .idata$6       0x00000000004399bc       0x18 D:/ITI/lectures/5-Intro to ES- Assaf/Tools/General Tools/mingw64/bin/../lib/gcc/x86_64-w64-mingw32/6.2.0/../../../../x86_64-w64-mingw32/lib/../lib/libmsvcrt.a(dekes00055.o)
 .idata$6       0x00000000004399d4        0xe D:/ITI/lectures/5-Intro to ES- Assaf/Tools/General Tools/mingw64/bin/../lib/gcc/x86_64-w64-mingw32/6.2.0/../../../../x86_64-w64-mingw32/lib/../lib/libmsvcrt.a(dekes00078.o)
 .idata$6       0x00000000004399e2       0x10 D:/ITI/lectures/5-Intro to ES- Assaf/Tools/General Tools/mingw64/bin/../lib/gcc/x86_64-w64-mingw32/6.2.0/../../../../x86_64-w64-mingw32/lib/../lib/libmsvcrt.a(dekes00081.o)
 .idata$6       0x00000000004399f2        0xc D:/ITI/lectures/5-Intro to ES- Assaf/Tools/General Tools/mingw64/bin/../lib/gcc/x86_64-w64-mingw32/6.2.0/../../../../x86_64-w64-mingw32/lib/../lib/libmsvcrt.a(dekes00082.o)
 .idata$6       0x00000000004399fe        0xe D:/ITI/lectures/5-Intro to ES- Assaf/Tools/General Tools/mingw64/bin/../lib/gcc/x86_64-w64-mingw32/6.2.0/../../../../x86_64-w64-mingw32/lib/../lib/libmsvcrt.a(dekes00083.o)
 .idata$6       0x0000000000439a0c       0x10 D:/ITI/lectures/5-Intro to ES- Assaf/Tools/General Tools/mingw64/bin/../lib/gcc/x86_64-w64-mingw32/6.2.0/../../../../x86_64-w64-mingw32/lib/../lib/libmsvcrt.a(dekes00091.o)
 .idata$6       0x0000000000439a1c       0x12 D:/ITI/lectures/5-Intro to ES- Assaf/Tools/General Tools/mingw64/bin/../lib/gcc/x86_64-w64-mingw32/6.2.0/../../../../x86_64-w64-mingw32/lib/../lib/libmsvcrt.a(dekes00097.o)
 .idata$6       0x0000000000439a2e       0x14 D:/ITI/lectures/5-Intro to ES- Assaf/Tools/General Tools/mingw64/bin/../lib/gcc/x86_64-w64-mingw32/6.2.0/../../../../x86_64-w64-mingw32/lib/../lib/libmsvcrt.a(dekes00099.o)
 .idata$6       0x0000000000439a42        0xa D:/ITI/lectures/5-Intro to ES- Assaf/Tools/General Tools/mingw64/bin/../lib/gcc/x86_64-w64-mingw32/6.2.0/../../../../x86_64-w64-mingw32/lib/../lib/libmsvcrt.a(dekes00116.o)
 .idata$6       0x0000000000439a4c        0xe D:/ITI/lectures/5-Intro to ES- Assaf/Tools/General Tools/mingw64/bin/../lib/gcc/x86_64-w64-mingw32/6.2.0/../../../../x86_64-w64-mingw32/lib/../lib/libmsvcrt.a(dekes00123.o)
 .idata$6       0x0000000000439a5a        0xa D:/ITI/lectures/5-Intro to ES- Assaf/Tools/General Tools/mingw64/bin/../lib/gcc/x86_64-w64-mingw32/6.2.0/../../../../x86_64-w64-mingw32/lib/../lib/libmsvcrt.a(dekes00141.o)
 .idata$6       0x0000000000439a64        0xa D:/ITI/lectures/5-Intro to ES- Assaf/Tools/General Tools/mingw64/bin/../lib/gcc/x86_64-w64-mingw32/6.2.0/../../../../x86_64-w64-mingw32/lib/../lib/libmsvcrt.a(dekes00252.o)
 .idata$6       0x0000000000439a6e        0xc D:/ITI/lectures/5-Intro to ES- Assaf/Tools/General Tools/mingw64/bin/../lib/gcc/x86_64-w64-mingw32/6.2.0/../../../../x86_64-w64-mingw32/lib/../lib/libmsvcrt.a(dekes00330.o)
 .idata$6       0x0000000000439a7a        0x8 D:/ITI/lectures/5-Intro to ES- Assaf/Tools/General Tools/mingw64/bin/../lib/gcc/x86_64-w64-mingw32/6.2.0/../../../../x86_64-w64-mingw32/lib/../lib/libmsvcrt.a(dekes00438.o)
 .idata$6       0x0000000000439a82        0xa D:/ITI/lectures/5-Intro to ES- Assaf/Tools/General Tools/mingw64/bin/../lib/gcc/x86_64-w64-mingw32/6.2.0/../../../../x86_64-w64-mingw32/lib/../lib/libmsvcrt.a(dekes00611.o)
 .idata$6       0x0000000000439a8c        0xa D:/ITI/lectures/5-Intro to ES- Assaf/Tools/General Tools/mingw64/bin/../lib/gcc/x86_64-w64-mingw32/6.2.0/../../../../x86_64-w64-mingw32/lib/../lib/libmsvcrt.a(dekes00820.o)
 .idata$6       0x0000000000439a96        0x8 D:/ITI/lectures/5-Intro to ES- Assaf/Tools/General Tools/mingw64/bin/../lib/gcc/x86_64-w64-mingw32/6.2.0/../../../../x86_64-w64-mingw32/lib/../lib/libmsvcrt.a(dekes01028.o)
 .idata$6       0x0000000000439a9e        0xa D:/ITI/lectures/5-Intro to ES- Assaf/Tools/General Tools/mingw64/bin/../lib/gcc/x86_64-w64-mingw32/6.2.0/../../../../x86_64-w64-mingw32/lib/../lib/libmsvcrt.a(dekes01048.o)
 .idata$6       0x0000000000439aa8        0x8 D:/ITI/lectures/5-Intro to ES- Assaf/Tools/General Tools/mingw64/bin/../lib/gcc/x86_64-w64-mingw32/6.2.0/../../../../x86_64-w64-mingw32/lib/../lib/libmsvcrt.a(dekes01061.o)
 .idata$6       0x0000000000439ab0        0xa D:/ITI/lectures/5-Intro to ES- Assaf/Tools/General Tools/mingw64/bin/../lib/gcc/x86_64-w64-mingw32/6.2.0/../../../../x86_64-w64-mingw32/lib/../lib/libmsvcrt.a(dekes01065.o)
 .idata$6       0x0000000000439aba        0xa D:/ITI/lectures/5-Intro to ES- Assaf/Tools/General Tools/mingw64/bin/../lib/gcc/x86_64-w64-mingw32/6.2.0/../../../../x86_64-w64-mingw32/lib/../lib/libmsvcrt.a(dekes01068.o)
 .idata$6       0x0000000000439ac4        0x8 D:/ITI/lectures/5-Intro to ES- Assaf/Tools/General Tools/mingw64/bin/../lib/gcc/x86_64-w64-mingw32/6.2.0/../../../../x86_64-w64-mingw32/lib/../lib/libmsvcrt.a(dekes01078.o)
 .idata$6       0x0000000000439acc        0xa D:/ITI/lectures/5-Intro to ES- Assaf/Tools/General Tools/mingw64/bin/../lib/gcc/x86_64-w64-mingw32/6.2.0/../../../../x86_64-w64-mingw32/lib/../lib/libmsvcrt.a(dekes01080.o)
 .idata$6       0x0000000000439ad6        0x8 D:/ITI/lectures/5-Intro to ES- Assaf/Tools/General Tools/mingw64/bin/../lib/gcc/x86_64-w64-mingw32/6.2.0/../../../../x86_64-w64-mingw32/lib/../lib/libmsvcrt.a(dekes01087.o)
 .idata$6       0x0000000000439ade        0xa D:/ITI/lectures/5-Intro to ES- Assaf/Tools/General Tools/mingw64/bin/../lib/gcc/x86_64-w64-mingw32/6.2.0/../../../../x86_64-w64-mingw32/lib/../lib/libmsvcrt.a(dekes01099.o)
 .idata$6       0x0000000000439ae8        0xa D:/ITI/lectures/5-Intro to ES- Assaf/Tools/General Tools/mingw64/bin/../lib/gcc/x86_64-w64-mingw32/6.2.0/../../../../x86_64-w64-mingw32/lib/../lib/libmsvcrt.a(dekes01146.o)
 .idata$6       0x0000000000439af2        0xa D:/ITI/lectures/5-Intro to ES- Assaf/Tools/General Tools/mingw64/bin/../lib/gcc/x86_64-w64-mingw32/6.2.0/../../../../x86_64-w64-mingw32/lib/../lib/libmsvcrt.a(dekes01153.o)
 .idata$6       0x0000000000439afc        0xa D:/ITI/lectures/5-Intro to ES- Assaf/Tools/General Tools/mingw64/bin/../lib/gcc/x86_64-w64-mingw32/6.2.0/../../../../x86_64-w64-mingw32/lib/../lib/libmsvcrt.a(dekes01154.o)
 .idata$6       0x0000000000439b06        0xa D:/ITI/lectures/5-Intro to ES- Assaf/Tools/General Tools/mingw64/bin/../lib/gcc/x86_64-w64-mingw32/6.2.0/../../../../x86_64-w64-mingw32/lib/../lib/libmsvcrt.a(dekes01156.o)
 .idata$6       0x0000000000439b10        0xa D:/ITI/lectures/5-Intro to ES- Assaf/Tools/General Tools/mingw64/bin/../lib/gcc/x86_64-w64-mingw32/6.2.0/../../../../x86_64-w64-mingw32/lib/../lib/libmsvcrt.a(dekes01163.o)
 .idata$6       0x0000000000439b1a        0xa D:/ITI/lectures/5-Intro to ES- Assaf/Tools/General Tools/mingw64/bin/../lib/gcc/x86_64-w64-mingw32/6.2.0/../../../../x86_64-w64-mingw32/lib/../lib/libmsvcrt.a(dekes01166.o)
 .idata$6       0x0000000000439b24        0x8 D:/ITI/lectures/5-Intro to ES- Assaf/Tools/General Tools/mingw64/bin/../lib/gcc/x86_64-w64-mingw32/6.2.0/../../../../x86_64-w64-mingw32/lib/../lib/libmsvcrt.a(dekes01167.o)
 .idata$6       0x0000000000439b2c        0x8 D:/ITI/lectures/5-Intro to ES- Assaf/Tools/General Tools/mingw64/bin/../lib/gcc/x86_64-w64-mingw32/6.2.0/../../../../x86_64-w64-mingw32/lib/../lib/libmsvcrt.a(dekes01173.o)
 .idata$6       0x0000000000439b34        0xa D:/ITI/lectures/5-Intro to ES- Assaf/Tools/General Tools/mingw64/bin/../lib/gcc/x86_64-w64-mingw32/6.2.0/../../../../x86_64-w64-mingw32/lib/../lib/libmsvcrt.a(dekes01184.o)
 .idata$6       0x0000000000439b3e        0xa D:/ITI/lectures/5-Intro to ES- Assaf/Tools/General Tools/mingw64/bin/../lib/gcc/x86_64-w64-mingw32/6.2.0/../../../../x86_64-w64-mingw32/lib/../lib/libmsvcrt.a(dekes01189.o)
 .idata$6       0x0000000000439b48        0xa D:/ITI/lectures/5-Intro to ES- Assaf/Tools/General Tools/mingw64/bin/../lib/gcc/x86_64-w64-mingw32/6.2.0/../../../../x86_64-w64-mingw32/lib/../lib/libmsvcrt.a(dekes01198.o)
 .idata$6       0x0000000000439b52        0xa D:/ITI/lectures/5-Intro to ES- Assaf/Tools/General Tools/mingw64/bin/../lib/gcc/x86_64-w64-mingw32/6.2.0/../../../../x86_64-w64-mingw32/lib/../lib/libmsvcrt.a(dekes01205.o)
 .idata$6       0x0000000000439b5c        0xa D:/ITI/lectures/5-Intro to ES- Assaf/Tools/General Tools/mingw64/bin/../lib/gcc/x86_64-w64-mingw32/6.2.0/../../../../x86_64-w64-mingw32/lib/../lib/libmsvcrt.a(dekes01208.o)
 .idata$6       0x0000000000439b66        0xc D:/ITI/lectures/5-Intro to ES- Assaf/Tools/General Tools/mingw64/bin/../lib/gcc/x86_64-w64-mingw32/6.2.0/../../../../x86_64-w64-mingw32/lib/../lib/libmsvcrt.a(dekes01240.o)
 .idata$6       0x0000000000439b72       0x12 D:/ITI/lectures/5-Intro to ES- Assaf/Tools/General Tools/mingw64/bin/../lib/gcc/x86_64-w64-mingw32/6.2.0/../../../../x86_64-w64-mingw32/lib/../lib/libwinmm.a(dmces00149.o)
 .idata$6       0x0000000000439b84       0x10 D:/ITI/lectures/5-Intro to ES- Assaf/Tools/General Tools/mingw64/bin/../lib/gcc/x86_64-w64-mingw32/6.2.0/../../../../x86_64-w64-mingw32/lib/../lib/libwinmm.a(dmces00150.o)
 .idata$6       0x0000000000439b94       0x12 D:/ITI/lectures/5-Intro to ES- Assaf/Tools/General Tools/mingw64/bin/../lib/gcc/x86_64-w64-mingw32/6.2.0/../../../../x86_64-w64-mingw32/lib/../lib/libwinmm.a(dmces00151.o)
 SORT(*)(.idata$7)
 *fill*         0x0000000000439ba6        0x2 
 .idata$7       0x0000000000439ba8        0x4 D:/ITI/lectures/5-Intro to ES- Assaf/Tools/General Tools/mingw64/bin/../lib/gcc/x86_64-w64-mingw32/6.2.0/../../../../x86_64-w64-mingw32/lib/../lib/libkernel32.a(dmmds00085.o)
 .idata$7       0x0000000000439bac        0x4 D:/ITI/lectures/5-Intro to ES- Assaf/Tools/General Tools/mingw64/bin/../lib/gcc/x86_64-w64-mingw32/6.2.0/../../../../x86_64-w64-mingw32/lib/../lib/libkernel32.a(dmmds00134.o)
 .idata$7       0x0000000000439bb0        0x4 D:/ITI/lectures/5-Intro to ES- Assaf/Tools/General Tools/mingw64/bin/../lib/gcc/x86_64-w64-mingw32/6.2.0/../../../../x86_64-w64-mingw32/lib/../lib/libkernel32.a(dmmds00160.o)
 .idata$7       0x0000000000439bb4        0x4 D:/ITI/lectures/5-Intro to ES- Assaf/Tools/General Tools/mingw64/bin/../lib/gcc/x86_64-w64-mingw32/6.2.0/../../../../x86_64-w64-mingw32/lib/../lib/libkernel32.a(dmmds00186.o)
 .idata$7       0x0000000000439bb8        0x4 D:/ITI/lectures/5-Intro to ES- Assaf/Tools/General Tools/mingw64/bin/../lib/gcc/x86_64-w64-mingw32/6.2.0/../../../../x86_64-w64-mingw32/lib/../lib/libkernel32.a(dmmds00216.o)
 .idata$7       0x0000000000439bbc        0x4 D:/ITI/lectures/5-Intro to ES- Assaf/Tools/General Tools/mingw64/bin/../lib/gcc/x86_64-w64-mingw32/6.2.0/../../../../x86_64-w64-mingw32/lib/../lib/libkernel32.a(dmmds00249.o)
 .idata$7       0x0000000000439bc0        0x4 D:/ITI/lectures/5-Intro to ES- Assaf/Tools/General Tools/mingw64/bin/../lib/gcc/x86_64-w64-mingw32/6.2.0/../../../../x86_64-w64-mingw32/lib/../lib/libkernel32.a(dmmds00295.o)
 .idata$7       0x0000000000439bc4        0x4 D:/ITI/lectures/5-Intro to ES- Assaf/Tools/General Tools/mingw64/bin/../lib/gcc/x86_64-w64-mingw32/6.2.0/../../../../x86_64-w64-mingw32/lib/../lib/libkernel32.a(dmmds00462.o)
 .idata$7       0x0000000000439bc8        0x4 D:/ITI/lectures/5-Intro to ES- Assaf/Tools/General Tools/mingw64/bin/../lib/gcc/x86_64-w64-mingw32/6.2.0/../../../../x86_64-w64-mingw32/lib/../lib/libkernel32.a(dmmds00463.o)
 .idata$7       0x0000000000439bcc        0x4 D:/ITI/lectures/5-Intro to ES- Assaf/Tools/General Tools/mingw64/bin/../lib/gcc/x86_64-w64-mingw32/6.2.0/../../../../x86_64-w64-mingw32/lib/../lib/libkernel32.a(dmmds00466.o)
 .idata$7       0x0000000000439bd0        0x4 D:/ITI/lectures/5-Intro to ES- Assaf/Tools/General Tools/mingw64/bin/../lib/gcc/x86_64-w64-mingw32/6.2.0/../../../../x86_64-w64-mingw32/lib/../lib/libkernel32.a(dmmds00467.o)
 .idata$7       0x0000000000439bd4        0x4 D:/ITI/lectures/5-Intro to ES- Assaf/Tools/General Tools/mingw64/bin/../lib/gcc/x86_64-w64-mingw32/6.2.0/../../../../x86_64-w64-mingw32/lib/../lib/libkernel32.a(dmmds00529.o)
 .idata$7       0x0000000000439bd8        0x4 D:/ITI/lectures/5-Intro to ES- Assaf/Tools/General Tools/mingw64/bin/../lib/gcc/x86_64-w64-mingw32/6.2.0/../../../../x86_64-w64-mingw32/lib/../lib/libkernel32.a(dmmds00549.o)
 .idata$7       0x0000000000439bdc        0x4 D:/ITI/lectures/5-Intro to ES- Assaf/Tools/General Tools/mingw64/bin/../lib/gcc/x86_64-w64-mingw32/6.2.0/../../../../x86_64-w64-mingw32/lib/../lib/libkernel32.a(dmmds00599.o)
 .idata$7       0x0000000000439be0        0x4 D:/ITI/lectures/5-Intro to ES- Assaf/Tools/General Tools/mingw64/bin/../lib/gcc/x86_64-w64-mingw32/6.2.0/../../../../x86_64-w64-mingw32/lib/../lib/libkernel32.a(dmmds00628.o)
 .idata$7       0x0000000000439be4        0x4 D:/ITI/lectures/5-Intro to ES- Assaf/Tools/General Tools/mingw64/bin/../lib/gcc/x86_64-w64-mingw32/6.2.0/../../../../x86_64-w64-mingw32/lib/../lib/libkernel32.a(dmmds00645.o)
 .idata$7       0x0000000000439be8        0x4 D:/ITI/lectures/5-Intro to ES- Assaf/Tools/General Tools/mingw64/bin/../lib/gcc/x86_64-w64-mingw32/6.2.0/../../../../x86_64-w64-mingw32/lib/../lib/libkernel32.a(dmmds00651.o)
 .idata$7       0x0000000000439bec        0x4 D:/ITI/lectures/5-Intro to ES- Assaf/Tools/General Tools/mingw64/bin/../lib/gcc/x86_64-w64-mingw32/6.2.0/../../../../x86_64-w64-mingw32/lib/../lib/libkernel32.a(dmmds00665.o)
 .idata$7       0x0000000000439bf0        0x4 D:/ITI/lectures/5-Intro to ES- Assaf/Tools/General Tools/mingw64/bin/../lib/gcc/x86_64-w64-mingw32/6.2.0/../../../../x86_64-w64-mingw32/lib/../lib/libkernel32.a(dmmds00678.o)
 .idata$7       0x0000000000439bf4        0x4 D:/ITI/lectures/5-Intro to ES- Assaf/Tools/General Tools/mingw64/bin/../lib/gcc/x86_64-w64-mingw32/6.2.0/../../../../x86_64-w64-mingw32/lib/../lib/libkernel32.a(dmmds00762.o)
 .idata$7       0x0000000000439bf8        0x4 D:/ITI/lectures/5-Intro to ES- Assaf/Tools/General Tools/mingw64/bin/../lib/gcc/x86_64-w64-mingw32/6.2.0/../../../../x86_64-w64-mingw32/lib/../lib/libkernel32.a(dmmds00844.o)
 .idata$7       0x0000000000439bfc        0x4 D:/ITI/lectures/5-Intro to ES- Assaf/Tools/General Tools/mingw64/bin/../lib/gcc/x86_64-w64-mingw32/6.2.0/../../../../x86_64-w64-mingw32/lib/../lib/libkernel32.a(dmmds00958.o)
 .idata$7       0x0000000000439c00        0x4 D:/ITI/lectures/5-Intro to ES- Assaf/Tools/General Tools/mingw64/bin/../lib/gcc/x86_64-w64-mingw32/6.2.0/../../../../x86_64-w64-mingw32/lib/../lib/libkernel32.a(dmmds00959.o)
 .idata$7       0x0000000000439c04        0x4 D:/ITI/lectures/5-Intro to ES- Assaf/Tools/General Tools/mingw64/bin/../lib/gcc/x86_64-w64-mingw32/6.2.0/../../../../x86_64-w64-mingw32/lib/../lib/libkernel32.a(dmmds01003.o)
 .idata$7       0x0000000000439c08        0x4 D:/ITI/lectures/5-Intro to ES- Assaf/Tools/General Tools/mingw64/bin/../lib/gcc/x86_64-w64-mingw32/6.2.0/../../../../x86_64-w64-mingw32/lib/../lib/libkernel32.a(dmmds01024.o)
 .idata$7       0x0000000000439c0c        0x4 D:/ITI/lectures/5-Intro to ES- Assaf/Tools/General Tools/mingw64/bin/../lib/gcc/x86_64-w64-mingw32/6.2.0/../../../../x86_64-w64-mingw32/lib/../lib/libkernel32.a(dmmds01028.o)
 .idata$7       0x0000000000439c10        0x4 D:/ITI/lectures/5-Intro to ES- Assaf/Tools/General Tools/mingw64/bin/../lib/gcc/x86_64-w64-mingw32/6.2.0/../../../../x86_64-w64-mingw32/lib/../lib/libkernel32.a(dmmds01029.o)
 .idata$7       0x0000000000439c14        0x4 D:/ITI/lectures/5-Intro to ES- Assaf/Tools/General Tools/mingw64/bin/../lib/gcc/x86_64-w64-mingw32/6.2.0/../../../../x86_64-w64-mingw32/lib/../lib/libkernel32.a(dmmds01030.o)
 .idata$7       0x0000000000439c18        0x4 D:/ITI/lectures/5-Intro to ES- Assaf/Tools/General Tools/mingw64/bin/../lib/gcc/x86_64-w64-mingw32/6.2.0/../../../../x86_64-w64-mingw32/lib/../lib/libkernel32.a(dmmds01037.o)
 .idata$7       0x0000000000439c1c        0x4 D:/ITI/lectures/5-Intro to ES- Assaf/Tools/General Tools/mingw64/bin/../lib/gcc/x86_64-w64-mingw32/6.2.0/../../../../x86_64-w64-mingw32/lib/../lib/libkernel32.a(dmmds01044.o)
 .idata$7       0x0000000000439c20        0x4 D:/ITI/lectures/5-Intro to ES- Assaf/Tools/General Tools/mingw64/bin/../lib/gcc/x86_64-w64-mingw32/6.2.0/../../../../x86_64-w64-mingw32/lib/../lib/libkernel32.a(dmmds01067.o)
 .idata$7       0x0000000000439c24        0x4 D:/ITI/lectures/5-Intro to ES- Assaf/Tools/General Tools/mingw64/bin/../lib/gcc/x86_64-w64-mingw32/6.2.0/../../../../x86_64-w64-mingw32/lib/../lib/libkernel32.a(dmmds01111.o)
 .idata$7       0x0000000000439c28        0x4 D:/ITI/lectures/5-Intro to ES- Assaf/Tools/General Tools/mingw64/bin/../lib/gcc/x86_64-w64-mingw32/6.2.0/../../../../x86_64-w64-mingw32/lib/../lib/libkernel32.a(dmmds01146.o)
 .idata$7       0x0000000000439c2c        0x4 D:/ITI/lectures/5-Intro to ES- Assaf/Tools/General Tools/mingw64/bin/../lib/gcc/x86_64-w64-mingw32/6.2.0/../../../../x86_64-w64-mingw32/lib/../lib/libkernel32.a(dmmds01165.o)
 .idata$7       0x0000000000439c30        0x4 D:/ITI/lectures/5-Intro to ES- Assaf/Tools/General Tools/mingw64/bin/../lib/gcc/x86_64-w64-mingw32/6.2.0/../../../../x86_64-w64-mingw32/lib/../lib/libkernel32.a(dmmds01174.o)
 .idata$7       0x0000000000439c34        0x4 D:/ITI/lectures/5-Intro to ES- Assaf/Tools/General Tools/mingw64/bin/../lib/gcc/x86_64-w64-mingw32/6.2.0/../../../../x86_64-w64-mingw32/lib/../lib/libkernel32.a(dmmds01175.o)
 .idata$7       0x0000000000439c38        0x4 D:/ITI/lectures/5-Intro to ES- Assaf/Tools/General Tools/mingw64/bin/../lib/gcc/x86_64-w64-mingw32/6.2.0/../../../../x86_64-w64-mingw32/lib/../lib/libkernel32.a(dmmds01187.o)
 .idata$7       0x0000000000439c3c        0x4 D:/ITI/lectures/5-Intro to ES- Assaf/Tools/General Tools/mingw64/bin/../lib/gcc/x86_64-w64-mingw32/6.2.0/../../../../x86_64-w64-mingw32/lib/../lib/libkernel32.a(dmmds01200.o)
 .idata$7       0x0000000000439c40        0x4 D:/ITI/lectures/5-Intro to ES- Assaf/Tools/General Tools/mingw64/bin/../lib/gcc/x86_64-w64-mingw32/6.2.0/../../../../x86_64-w64-mingw32/lib/../lib/libkernel32.a(dmmds01208.o)
 .idata$7       0x0000000000439c44        0x4 D:/ITI/lectures/5-Intro to ES- Assaf/Tools/General Tools/mingw64/bin/../lib/gcc/x86_64-w64-mingw32/6.2.0/../../../../x86_64-w64-mingw32/lib/../lib/libkernel32.a(dmmds01214.o)
 .idata$7       0x0000000000439c48        0x4 D:/ITI/lectures/5-Intro to ES- Assaf/Tools/General Tools/mingw64/bin/../lib/gcc/x86_64-w64-mingw32/6.2.0/../../../../x86_64-w64-mingw32/lib/../lib/libkernel32.a(dmmds01215.o)
 .idata$7       0x0000000000439c4c        0x4 D:/ITI/lectures/5-Intro to ES- Assaf/Tools/General Tools/mingw64/bin/../lib/gcc/x86_64-w64-mingw32/6.2.0/../../../../x86_64-w64-mingw32/lib/../lib/libkernel32.a(dmmds01221.o)
 .idata$7       0x0000000000439c50        0x4 D:/ITI/lectures/5-Intro to ES- Assaf/Tools/General Tools/mingw64/bin/../lib/gcc/x86_64-w64-mingw32/6.2.0/../../../../x86_64-w64-mingw32/lib/../lib/libkernel32.a(dmmds01234.o)
 .idata$7       0x0000000000439c54        0x4 D:/ITI/lectures/5-Intro to ES- Assaf/Tools/General Tools/mingw64/bin/../lib/gcc/x86_64-w64-mingw32/6.2.0/../../../../x86_64-w64-mingw32/lib/../lib/libkernel32.a(dmmds01264.o)
 .idata$7       0x0000000000439c58        0x4 D:/ITI/lectures/5-Intro to ES- Assaf/Tools/General Tools/mingw64/bin/../lib/gcc/x86_64-w64-mingw32/6.2.0/../../../../x86_64-w64-mingw32/lib/../lib/libkernel32.a(dmmds01266.o)
 .idata$7       0x0000000000439c5c        0x4 D:/ITI/lectures/5-Intro to ES- Assaf/Tools/General Tools/mingw64/bin/../lib/gcc/x86_64-w64-mingw32/6.2.0/../../../../x86_64-w64-mingw32/lib/../lib/libkernel32.a(dmmds01272.o)
 .idata$7       0x0000000000439c60        0x4 D:/ITI/lectures/5-Intro to ES- Assaf/Tools/General Tools/mingw64/bin/../lib/gcc/x86_64-w64-mingw32/6.2.0/../../../../x86_64-w64-mingw32/lib/../lib/libkernel32.a(dmmds01274.o)
 .idata$7       0x0000000000439c64       0x10 D:/ITI/lectures/5-Intro to ES- Assaf/Tools/General Tools/mingw64/bin/../lib/gcc/x86_64-w64-mingw32/6.2.0/../../../../x86_64-w64-mingw32/lib/../lib/libkernel32.a(dmmdt.o)
                0x0000000000439c64                __lib64_libkernel32_a_iname
 .idata$7       0x0000000000439c74        0x4 D:/ITI/lectures/5-Intro to ES- Assaf/Tools/General Tools/mingw64/bin/../lib/gcc/x86_64-w64-mingw32/6.2.0/../../../../x86_64-w64-mingw32/lib/../lib/libmsvcrt.a(dekes00055.o)
 .idata$7       0x0000000000439c78        0x4 D:/ITI/lectures/5-Intro to ES- Assaf/Tools/General Tools/mingw64/bin/../lib/gcc/x86_64-w64-mingw32/6.2.0/../../../../x86_64-w64-mingw32/lib/../lib/libmsvcrt.a(dekes00078.o)
 .idata$7       0x0000000000439c7c        0x4 D:/ITI/lectures/5-Intro to ES- Assaf/Tools/General Tools/mingw64/bin/../lib/gcc/x86_64-w64-mingw32/6.2.0/../../../../x86_64-w64-mingw32/lib/../lib/libmsvcrt.a(dekes00081.o)
 .idata$7       0x0000000000439c80        0x4 D:/ITI/lectures/5-Intro to ES- Assaf/Tools/General Tools/mingw64/bin/../lib/gcc/x86_64-w64-mingw32/6.2.0/../../../../x86_64-w64-mingw32/lib/../lib/libmsvcrt.a(dekes00082.o)
 .idata$7       0x0000000000439c84        0x4 D:/ITI/lectures/5-Intro to ES- Assaf/Tools/General Tools/mingw64/bin/../lib/gcc/x86_64-w64-mingw32/6.2.0/../../../../x86_64-w64-mingw32/lib/../lib/libmsvcrt.a(dekes00083.o)
 .idata$7       0x0000000000439c88        0x4 D:/ITI/lectures/5-Intro to ES- Assaf/Tools/General Tools/mingw64/bin/../lib/gcc/x86_64-w64-mingw32/6.2.0/../../../../x86_64-w64-mingw32/lib/../lib/libmsvcrt.a(dekes00091.o)
 .idata$7       0x0000000000439c8c        0x4 D:/ITI/lectures/5-Intro to ES- Assaf/Tools/General Tools/mingw64/bin/../lib/gcc/x86_64-w64-mingw32/6.2.0/../../../../x86_64-w64-mingw32/lib/../lib/libmsvcrt.a(dekes00097.o)
 .idata$7       0x0000000000439c90        0x4 D:/ITI/lectures/5-Intro to ES- Assaf/Tools/General Tools/mingw64/bin/../lib/gcc/x86_64-w64-mingw32/6.2.0/../../../../x86_64-w64-mingw32/lib/../lib/libmsvcrt.a(dekes00099.o)
 .idata$7       0x0000000000439c94        0x4 D:/ITI/lectures/5-Intro to ES- Assaf/Tools/General Tools/mingw64/bin/../lib/gcc/x86_64-w64-mingw32/6.2.0/../../../../x86_64-w64-mingw32/lib/../lib/libmsvcrt.a(dekes00116.o)
 .idata$7       0x0000000000439c98        0x4 D:/ITI/lectures/5-Intro to ES- Assaf/Tools/General Tools/mingw64/bin/../lib/gcc/x86_64-w64-mingw32/6.2.0/../../../../x86_64-w64-mingw32/lib/../lib/libmsvcrt.a(dekes00123.o)
 .idata$7       0x0000000000439c9c        0x4 D:/ITI/lectures/5-Intro to ES- Assaf/Tools/General Tools/mingw64/bin/../lib/gcc/x86_64-w64-mingw32/6.2.0/../../../../x86_64-w64-mingw32/lib/../lib/libmsvcrt.a(dekes00141.o)
 .idata$7       0x0000000000439ca0        0x4 D:/ITI/lectures/5-Intro to ES- Assaf/Tools/General Tools/mingw64/bin/../lib/gcc/x86_64-w64-mingw32/6.2.0/../../../../x86_64-w64-mingw32/lib/../lib/libmsvcrt.a(dekes00252.o)
 .idata$7       0x0000000000439ca4        0x4 D:/ITI/lectures/5-Intro to ES- Assaf/Tools/General Tools/mingw64/bin/../lib/gcc/x86_64-w64-mingw32/6.2.0/../../../../x86_64-w64-mingw32/lib/../lib/libmsvcrt.a(dekes00330.o)
 .idata$7       0x0000000000439ca8        0x4 D:/ITI/lectures/5-Intro to ES- Assaf/Tools/General Tools/mingw64/bin/../lib/gcc/x86_64-w64-mingw32/6.2.0/../../../../x86_64-w64-mingw32/lib/../lib/libmsvcrt.a(dekes00438.o)
 .idata$7       0x0000000000439cac        0x4 D:/ITI/lectures/5-Intro to ES- Assaf/Tools/General Tools/mingw64/bin/../lib/gcc/x86_64-w64-mingw32/6.2.0/../../../../x86_64-w64-mingw32/lib/../lib/libmsvcrt.a(dekes00611.o)
 .idata$7       0x0000000000439cb0        0x4 D:/ITI/lectures/5-Intro to ES- Assaf/Tools/General Tools/mingw64/bin/../lib/gcc/x86_64-w64-mingw32/6.2.0/../../../../x86_64-w64-mingw32/lib/../lib/libmsvcrt.a(dekes00820.o)
 .idata$7       0x0000000000439cb4        0x4 D:/ITI/lectures/5-Intro to ES- Assaf/Tools/General Tools/mingw64/bin/../lib/gcc/x86_64-w64-mingw32/6.2.0/../../../../x86_64-w64-mingw32/lib/../lib/libmsvcrt.a(dekes01028.o)
 .idata$7       0x0000000000439cb8        0x4 D:/ITI/lectures/5-Intro to ES- Assaf/Tools/General Tools/mingw64/bin/../lib/gcc/x86_64-w64-mingw32/6.2.0/../../../../x86_64-w64-mingw32/lib/../lib/libmsvcrt.a(dekes01048.o)
 .idata$7       0x0000000000439cbc        0x4 D:/ITI/lectures/5-Intro to ES- Assaf/Tools/General Tools/mingw64/bin/../lib/gcc/x86_64-w64-mingw32/6.2.0/../../../../x86_64-w64-mingw32/lib/../lib/libmsvcrt.a(dekes01061.o)
 .idata$7       0x0000000000439cc0        0x4 D:/ITI/lectures/5-Intro to ES- Assaf/Tools/General Tools/mingw64/bin/../lib/gcc/x86_64-w64-mingw32/6.2.0/../../../../x86_64-w64-mingw32/lib/../lib/libmsvcrt.a(dekes01065.o)
 .idata$7       0x0000000000439cc4        0x4 D:/ITI/lectures/5-Intro to ES- Assaf/Tools/General Tools/mingw64/bin/../lib/gcc/x86_64-w64-mingw32/6.2.0/../../../../x86_64-w64-mingw32/lib/../lib/libmsvcrt.a(dekes01068.o)
 .idata$7       0x0000000000439cc8        0x4 D:/ITI/lectures/5-Intro to ES- Assaf/Tools/General Tools/mingw64/bin/../lib/gcc/x86_64-w64-mingw32/6.2.0/../../../../x86_64-w64-mingw32/lib/../lib/libmsvcrt.a(dekes01078.o)
 .idata$7       0x0000000000439ccc        0x4 D:/ITI/lectures/5-Intro to ES- Assaf/Tools/General Tools/mingw64/bin/../lib/gcc/x86_64-w64-mingw32/6.2.0/../../../../x86_64-w64-mingw32/lib/../lib/libmsvcrt.a(dekes01080.o)
 .idata$7       0x0000000000439cd0        0x4 D:/ITI/lectures/5-Intro to ES- Assaf/Tools/General Tools/mingw64/bin/../lib/gcc/x86_64-w64-mingw32/6.2.0/../../../../x86_64-w64-mingw32/lib/../lib/libmsvcrt.a(dekes01087.o)
 .idata$7       0x0000000000439cd4        0x4 D:/ITI/lectures/5-Intro to ES- Assaf/Tools/General Tools/mingw64/bin/../lib/gcc/x86_64-w64-mingw32/6.2.0/../../../../x86_64-w64-mingw32/lib/../lib/libmsvcrt.a(dekes01099.o)
 .idata$7       0x0000000000439cd8        0x4 D:/ITI/lectures/5-Intro to ES- Assaf/Tools/General Tools/mingw64/bin/../lib/gcc/x86_64-w64-mingw32/6.2.0/../../../../x86_64-w64-mingw32/lib/../lib/libmsvcrt.a(dekes01146.o)
 .idata$7       0x0000000000439cdc        0x4 D:/ITI/lectures/5-Intro to ES- Assaf/Tools/General Tools/mingw64/bin/../lib/gcc/x86_64-w64-mingw32/6.2.0/../../../../x86_64-w64-mingw32/lib/../lib/libmsvcrt.a(dekes01153.o)
 .idata$7       0x0000000000439ce0        0x4 D:/ITI/lectures/5-Intro to ES- Assaf/Tools/General Tools/mingw64/bin/../lib/gcc/x86_64-w64-mingw32/6.2.0/../../../../x86_64-w64-mingw32/lib/../lib/libmsvcrt.a(dekes01154.o)
 .idata$7       0x0000000000439ce4        0x4 D:/ITI/lectures/5-Intro to ES- Assaf/Tools/General Tools/mingw64/bin/../lib/gcc/x86_64-w64-mingw32/6.2.0/../../../../x86_64-w64-mingw32/lib/../lib/libmsvcrt.a(dekes01156.o)
 .idata$7       0x0000000000439ce8        0x4 D:/ITI/lectures/5-Intro to ES- Assaf/Tools/General Tools/mingw64/bin/../lib/gcc/x86_64-w64-mingw32/6.2.0/../../../../x86_64-w64-mingw32/lib/../lib/libmsvcrt.a(dekes01163.o)
 .idata$7       0x0000000000439cec        0x4 D:/ITI/lectures/5-Intro to ES- Assaf/Tools/General Tools/mingw64/bin/../lib/gcc/x86_64-w64-mingw32/6.2.0/../../../../x86_64-w64-mingw32/lib/../lib/libmsvcrt.a(dekes01166.o)
 .idata$7       0x0000000000439cf0        0x4 D:/ITI/lectures/5-Intro to ES- Assaf/Tools/General Tools/mingw64/bin/../lib/gcc/x86_64-w64-mingw32/6.2.0/../../../../x86_64-w64-mingw32/lib/../lib/libmsvcrt.a(dekes01167.o)
 .idata$7       0x0000000000439cf4        0x4 D:/ITI/lectures/5-Intro to ES- Assaf/Tools/General Tools/mingw64/bin/../lib/gcc/x86_64-w64-mingw32/6.2.0/../../../../x86_64-w64-mingw32/lib/../lib/libmsvcrt.a(dekes01173.o)
 .idata$7       0x0000000000439cf8        0x4 D:/ITI/lectures/5-Intro to ES- Assaf/Tools/General Tools/mingw64/bin/../lib/gcc/x86_64-w64-mingw32/6.2.0/../../../../x86_64-w64-mingw32/lib/../lib/libmsvcrt.a(dekes01184.o)
 .idata$7       0x0000000000439cfc        0x4 D:/ITI/lectures/5-Intro to ES- Assaf/Tools/General Tools/mingw64/bin/../lib/gcc/x86_64-w64-mingw32/6.2.0/../../../../x86_64-w64-mingw32/lib/../lib/libmsvcrt.a(dekes01189.o)
 .idata$7       0x0000000000439d00        0x4 D:/ITI/lectures/5-Intro to ES- Assaf/Tools/General Tools/mingw64/bin/../lib/gcc/x86_64-w64-mingw32/6.2.0/../../../../x86_64-w64-mingw32/lib/../lib/libmsvcrt.a(dekes01198.o)
 .idata$7       0x0000000000439d04        0x4 D:/ITI/lectures/5-Intro to ES- Assaf/Tools/General Tools/mingw64/bin/../lib/gcc/x86_64-w64-mingw32/6.2.0/../../../../x86_64-w64-mingw32/lib/../lib/libmsvcrt.a(dekes01205.o)
 .idata$7       0x0000000000439d08        0x4 D:/ITI/lectures/5-Intro to ES- Assaf/Tools/General Tools/mingw64/bin/../lib/gcc/x86_64-w64-mingw32/6.2.0/../../../../x86_64-w64-mingw32/lib/../lib/libmsvcrt.a(dekes01208.o)
 .idata$7       0x0000000000439d0c        0x4 D:/ITI/lectures/5-Intro to ES- Assaf/Tools/General Tools/mingw64/bin/../lib/gcc/x86_64-w64-mingw32/6.2.0/../../../../x86_64-w64-mingw32/lib/../lib/libmsvcrt.a(dekes01240.o)
 .idata$7       0x0000000000439d10        0xc D:/ITI/lectures/5-Intro to ES- Assaf/Tools/General Tools/mingw64/bin/../lib/gcc/x86_64-w64-mingw32/6.2.0/../../../../x86_64-w64-mingw32/lib/../lib/libmsvcrt.a(deket.o)
                0x0000000000439d10                __lib64_libmsvcrt_a_iname
 .idata$7       0x0000000000439d1c        0x4 D:/ITI/lectures/5-Intro to ES- Assaf/Tools/General Tools/mingw64/bin/../lib/gcc/x86_64-w64-mingw32/6.2.0/../../../../x86_64-w64-mingw32/lib/../lib/libwinmm.a(dmces00149.o)
 .idata$7       0x0000000000439d20        0x4 D:/ITI/lectures/5-Intro to ES- Assaf/Tools/General Tools/mingw64/bin/../lib/gcc/x86_64-w64-mingw32/6.2.0/../../../../x86_64-w64-mingw32/lib/../lib/libwinmm.a(dmces00150.o)
 .idata$7       0x0000000000439d24        0x4 D:/ITI/lectures/5-Intro to ES- Assaf/Tools/General Tools/mingw64/bin/../lib/gcc/x86_64-w64-mingw32/6.2.0/../../../../x86_64-w64-mingw32/lib/../lib/libwinmm.a(dmces00151.o)
 .idata$7       0x0000000000439d28        0xc D:/ITI/lectures/5-Intro to ES- Assaf/Tools/General Tools/mingw64/bin/../lib/gcc/x86_64-w64-mingw32/6.2.0/../../../../x86_64-w64-mingw32/lib/../lib/libwinmm.a(dmcet.o)
                0x0000000000439d28                __lib64_libwinmm_a_iname

.CRT            0x000000000043a000      0x200
                0x000000000043a000                ___crt_xc_start__ = .
 *(SORT(.CRT$XC*))
 .CRT$XCA       0x000000000043a000        0x8 D:/ITI/lectures/5-Intro to ES- Assaf/Tools/General Tools/mingw64/bin/../lib/gcc/x86_64-w64-mingw32/6.2.0/../../../../x86_64-w64-mingw32/lib/../lib/libmingw32.a(lib64_libmingw32_a-cinitexe.o)
                0x000000000043a000                __xc_a
 .CRT$XCAA      0x000000000043a008        0x8 D:/ITI/lectures/5-Intro to ES- Assaf/Tools/General Tools/mingw64/bin/../lib/gcc/x86_64-w64-mingw32/6.2.0/../../../../x86_64-w64-mingw32/lib/../lib/crt2.o
                0x000000000043a008                mingw_pcppinit
 .CRT$XCZ       0x000000000043a010        0x8 D:/ITI/lectures/5-Intro to ES- Assaf/Tools/General Tools/mingw64/bin/../lib/gcc/x86_64-w64-mingw32/6.2.0/../../../../x86_64-w64-mingw32/lib/../lib/libmingw32.a(lib64_libmingw32_a-cinitexe.o)
                0x000000000043a010                __xc_z
                0x000000000043a018                ___crt_xc_end__ = .
                0x000000000043a018                ___crt_xi_start__ = .
 *(SORT(.CRT$XI*))
 .CRT$XIA       0x000000000043a018        0x8 D:/ITI/lectures/5-Intro to ES- Assaf/Tools/General Tools/mingw64/bin/../lib/gcc/x86_64-w64-mingw32/6.2.0/../../../../x86_64-w64-mingw32/lib/../lib/libmingw32.a(lib64_libmingw32_a-cinitexe.o)
                0x000000000043a018                __xi_a
 .CRT$XIAA      0x000000000043a020        0x8 D:/ITI/lectures/5-Intro to ES- Assaf/Tools/General Tools/mingw64/bin/../lib/gcc/x86_64-w64-mingw32/6.2.0/../../../../x86_64-w64-mingw32/lib/../lib/crt2.o
                0x000000000043a020                mingw_pcinit
 .CRT$XIC       0x000000000043a028        0x8 D:/ITI/lectures/5-Intro to ES- Assaf/Tools/General Tools/mingw64/bin/../lib/gcc/x86_64-w64-mingw32/6.2.0/../../../../x86_64-w64-mingw32/lib/../lib/libmingw32.a(lib64_libmingw32_a-charmax.o)
                0x000000000043a028                __mingw_pinit
 .CRT$XIZ       0x000000000043a030        0x8 D:/ITI/lectures/5-Intro to ES- Assaf/Tools/General Tools/mingw64/bin/../lib/gcc/x86_64-w64-mingw32/6.2.0/../../../../x86_64-w64-mingw32/lib/../lib/libmingw32.a(lib64_libmingw32_a-cinitexe.o)
                0x000000000043a030                __xi_z
                0x000000000043a038                ___crt_xi_end__ = .
                0x000000000043a038                ___crt_xl_start__ = .
 *(SORT(.CRT$XL*))
 .CRT$XLA       0x000000000043a038        0x8 D:/ITI/lectures/5-Intro to ES- Assaf/Tools/General Tools/mingw64/bin/../lib/gcc/x86_64-w64-mingw32/6.2.0/../../../../x86_64-w64-mingw32/lib/../lib/libmingw32.a(lib64_libmingw32_a-tlssup.o)
                0x000000000043a038                __xl_a
 .CRT$XLC       0x000000000043a040        0x8 D:/ITI/lectures/5-Intro to ES- Assaf/Tools/General Tools/mingw64/bin/../lib/gcc/x86_64-w64-mingw32/6.2.0/../../../../x86_64-w64-mingw32/lib/../lib/libmingw32.a(lib64_libmingw32_a-tlssup.o)
                0x000000000043a040                __xl_c
 .CRT$XLD       0x000000000043a048        0x8 D:/ITI/lectures/5-Intro to ES- Assaf/Tools/General Tools/mingw64/bin/../lib/gcc/x86_64-w64-mingw32/6.2.0/../../../../x86_64-w64-mingw32/lib/../lib/libmingw32.a(lib64_libmingw32_a-tlssup.o)
                0x000000000043a048                __xl_d
 .CRT$XLZ       0x000000000043a050        0x8 D:/ITI/lectures/5-Intro to ES- Assaf/Tools/General Tools/mingw64/bin/../lib/gcc/x86_64-w64-mingw32/6.2.0/../../../../x86_64-w64-mingw32/lib/../lib/libmingw32.a(lib64_libmingw32_a-tlssup.o)
                0x000000000043a050                __xl_z
                0x000000000043a058                ___crt_xp_start__ = .
 *(SORT(.CRT$XP*))
                0x000000000043a058                ___crt_xp_end__ = .
                0x000000000043a058                ___crt_xt_start__ = .
 *(SORT(.CRT$XT*))
                0x000000000043a058                ___crt_xt_end__ = .
 .CRT$XDA       0x000000000043a058        0x8 D:/ITI/lectures/5-Intro to ES- Assaf/Tools/General Tools/mingw64/bin/../lib/gcc/x86_64-w64-mingw32/6.2.0/../../../../x86_64-w64-mingw32/lib/../lib/libmingw32.a(lib64_libmingw32_a-tlssup.o)
 .CRT$XDZ       0x000000000043a060        0x8 D:/ITI/lectures/5-Intro to ES- Assaf/Tools/General Tools/mingw64/bin/../lib/gcc/x86_64-w64-mingw32/6.2.0/../../../../x86_64-w64-mingw32/lib/../lib/libmingw32.a(lib64_libmingw32_a-tlssup.o)

.tls            0x000000000043b000      0x200
                0x000000000043b000                ___tls_start__ = .
 *(.tls$AAA)
 .tls$AAA       0x000000000043b000        0x8 D:/ITI/lectures/5-Intro to ES- Assaf/Tools/General Tools/mingw64/bin/../lib/gcc/x86_64-w64-mingw32/6.2.0/../../../../x86_64-w64-mingw32/lib/../lib/libmingw32.a(lib64_libmingw32_a-tlssup.o)
                0x000000000043b000                _tls_start
 *(.tls)
 *fill*         0x000000000043b008       0x18 
 .tls           0x000000000043b020       0x40 D:/ITI/lectures/5-Intro to ES- Assaf/Tools/General Tools/mingw64/bin/../lib/gcc/x86_64-w64-mingw32/6.2.0/../../../../x86_64-w64-mingw32/lib/../lib/libmingw32.a(lib64_libmingw32_a-tlssup.o)
                0x000000000043b020                _tls_used
 *(.tls$)
 *(SORT(.tls$*))
 .tls$ZZZ       0x000000000043b060        0x8 D:/ITI/lectures/5-Intro to ES- Assaf/Tools/General Tools/mingw64/bin/../lib/gcc/x86_64-w64-mingw32/6.2.0/../../../../x86_64-w64-mingw32/lib/../lib/libmingw32.a(lib64_libmingw32_a-tlssup.o)
                0x000000000043b060                _tls_end
 *(.tls$ZZZ)
                0x000000000043b068                ___tls_end__ = .

.endjunk        0x000000000043c000        0x0
                0x000000000043c000                PROVIDE (end, .)
                0x000000000043c000                PROVIDE (_end, .)
                0x000000000043c000                __end__ = .

.rsrc
 *(.rsrc)
 *(.rsrc$*)

.reloc
 *(.reloc)

.stab
 *(.stab)

.stabstr
 *(.stabstr)

.debug_aranges  0x000000000043c000      0x800
 *(.debug_aranges)
 .debug_aranges
                0x000000000043c000       0x30 DemosModifiedForLowTickRate\recmutex.o
 .debug_aranges
                0x000000000043c030       0x20 FreeRTOS_Source\croutine.o
 .debug_aranges
                0x000000000043c050       0x30 FreeRTOS_Source\event_groups.o
 .debug_aranges
                0x000000000043c080       0x30 FreeRTOS_Source\list.o
 .debug_aranges
                0x000000000043c0b0       0x30 FreeRTOS_Source\portable\MSVC-MingW\port.o
 .debug_aranges
                0x000000000043c0e0       0x30 FreeRTOS_Source\portable\MemMang\heap_5.o
 .debug_aranges
                0x000000000043c110       0x30 FreeRTOS_Source\queue.o
 .debug_aranges
                0x000000000043c140       0x30 FreeRTOS_Source\stream_buffer.o
 .debug_aranges
                0x000000000043c170       0x30 FreeRTOS_Source\tasks.o
 .debug_aranges
                0x000000000043c1a0       0x30 FreeRTOS_Source\timers.o
 .debug_aranges
                0x000000000043c1d0       0x30 MyTask.o
 .debug_aranges
                0x000000000043c200       0x30 Run-time-stats-utils.o
 .debug_aranges
                0x000000000043c230       0x30 Standard_Demo_Tasks\AbortDelay.o
 .debug_aranges
                0x000000000043c260       0x30 Standard_Demo_Tasks\BlockQ.o
 .debug_aranges
                0x000000000043c290       0x30 Standard_Demo_Tasks\EventGroupsDemo.o
 .debug_aranges
                0x000000000043c2c0       0x30 Standard_Demo_Tasks\GenQTest.o
 .debug_aranges
                0x000000000043c2f0       0x30 Standard_Demo_Tasks\IntSemTest.o
 .debug_aranges
                0x000000000043c320       0x30 Standard_Demo_Tasks\MessageBufferAMP.o
 .debug_aranges
                0x000000000043c350       0x30 Standard_Demo_Tasks\MessageBufferDemo.o
 .debug_aranges
                0x000000000043c380       0x30 Standard_Demo_Tasks\PollQ.o
 .debug_aranges
                0x000000000043c3b0       0x30 Standard_Demo_Tasks\QPeek.o
 .debug_aranges
                0x000000000043c3e0       0x30 Standard_Demo_Tasks\QueueOverwrite.o
 .debug_aranges
                0x000000000043c410       0x30 Standard_Demo_Tasks\QueueSet.o
 .debug_aranges
                0x000000000043c440       0x30 Standard_Demo_Tasks\QueueSetPolling.o
 .debug_aranges
                0x000000000043c470       0x30 Standard_Demo_Tasks\StaticAllocation.o
 .debug_aranges
                0x000000000043c4a0       0x30 Standard_Demo_Tasks\StreamBufferDemo.o
 .debug_aranges
                0x000000000043c4d0       0x30 Standard_Demo_Tasks\StreamBufferInterrupt.o
 .debug_aranges
                0x000000000043c500       0x30 Standard_Demo_Tasks\TaskNotify.o
 .debug_aranges
                0x000000000043c530       0x30 Standard_Demo_Tasks\TimerDemo.o
 .debug_aranges
                0x000000000043c560       0x30 Standard_Demo_Tasks\blocktim.o
 .debug_aranges
                0x000000000043c590       0x30 Standard_Demo_Tasks\countsem.o
 .debug_aranges
                0x000000000043c5c0       0x30 Standard_Demo_Tasks\death.o
 .debug_aranges
                0x000000000043c5f0       0x30 Standard_Demo_Tasks\dynamic.o
 .debug_aranges
                0x000000000043c620       0x30 Standard_Demo_Tasks\flop.o
 .debug_aranges
                0x000000000043c650       0x30 Standard_Demo_Tasks\integer.o
 .debug_aranges
                0x000000000043c680       0x30 Standard_Demo_Tasks\semtest.o
 .debug_aranges
                0x000000000043c6b0       0x30 code_coverage_additions.o
 .debug_aranges
                0x000000000043c6e0       0x30 main.o
 .debug_aranges
                0x000000000043c710       0x30 main_blinky.o
 .debug_aranges
                0x000000000043c740       0x30 main_full.o
 .debug_aranges
                0x000000000043c770       0x30 D:/ITI/lectures/5-Intro to ES- Assaf/Tools/General Tools/mingw64/bin/../lib/gcc/x86_64-w64-mingw32/6.2.0/libgcc.a(_chkstk_ms.o)
 .debug_aranges
                0x000000000043c7a0       0x20 D:/ITI/lectures/5-Intro to ES- Assaf/Tools/General Tools/mingw64/bin/../lib/gcc/x86_64-w64-mingw32/6.2.0/libgcc.a(_ctors.o)

.zdebug_aranges
 *(.zdebug_aranges)

.debug_pubnames
 *(.debug_pubnames)

.zdebug_pubnames
 *(.zdebug_pubnames)

.debug_pubtypes
 *(.debug_pubtypes)

.zdebug_pubtypes
 *(.zdebug_pubtypes)

.debug_info     0x000000000043d000    0xd3e00
 *(.debug_info .gnu.linkonce.wi.*)
 .debug_info    0x000000000043d000     0x4fd3 DemosModifiedForLowTickRate\recmutex.o
 .debug_info    0x0000000000441fd3     0x48f3 FreeRTOS_Source\croutine.o
 .debug_info    0x00000000004468c6     0x5483 FreeRTOS_Source\event_groups.o
 .debug_info    0x000000000044bd49     0x4c0c FreeRTOS_Source\list.o
 .debug_info    0x0000000000450955     0x60b3 FreeRTOS_Source\portable\MSVC-MingW\port.o
 .debug_info    0x0000000000456a08     0x524a FreeRTOS_Source\portable\MemMang\heap_5.o
 .debug_info    0x000000000045bc52     0x688f FreeRTOS_Source\queue.o
 .debug_info    0x00000000004624e1     0x5a31 FreeRTOS_Source\stream_buffer.o
 .debug_info    0x0000000000467f12     0x779c FreeRTOS_Source\tasks.o
 .debug_info    0x000000000046f6ae     0x6275 FreeRTOS_Source\timers.o
 .debug_info    0x0000000000475923     0x4d2a MyTask.o
 .debug_info    0x000000000047a64d     0x4dfd Run-time-stats-utils.o
 .debug_info    0x000000000047f44a     0x595c Standard_Demo_Tasks\AbortDelay.o
 .debug_info    0x0000000000484da6     0x5041 Standard_Demo_Tasks\BlockQ.o
 .debug_info    0x0000000000489de7     0x5268 Standard_Demo_Tasks\EventGroupsDemo.o
 .debug_info    0x000000000048f04f     0x518d Standard_Demo_Tasks\GenQTest.o
 .debug_info    0x00000000004941dc     0x50fb Standard_Demo_Tasks\IntSemTest.o
 .debug_info    0x00000000004992d7     0x4fc2 Standard_Demo_Tasks\MessageBufferAMP.o
 .debug_info    0x000000000049e299     0x56ee Standard_Demo_Tasks\MessageBufferDemo.o
 .debug_info    0x00000000004a3987     0x4e59 Standard_Demo_Tasks\PollQ.o
 .debug_info    0x00000000004a87e0     0x4f2d Standard_Demo_Tasks\QPeek.o
 .debug_info    0x00000000004ad70d     0x4ea3 Standard_Demo_Tasks\QueueOverwrite.o
 .debug_info    0x00000000004b25b0     0x55a3 Standard_Demo_Tasks\QueueSet.o
 .debug_info    0x00000000004b7b53     0x4e54 Standard_Demo_Tasks\QueueSetPolling.o
 .debug_info    0x00000000004bc9a7     0x5c8b Standard_Demo_Tasks\StaticAllocation.o
 .debug_info    0x00000000004c2632     0x59a4 Standard_Demo_Tasks\StreamBufferDemo.o
 .debug_info    0x00000000004c7fd6     0x4eb4 Standard_Demo_Tasks\StreamBufferInterrupt.o
 .debug_info    0x00000000004cce8a     0x52cb Standard_Demo_Tasks\TaskNotify.o
 .debug_info    0x00000000004d2155     0x543a Standard_Demo_Tasks\TimerDemo.o
 .debug_info    0x00000000004d758f     0x4fea Standard_Demo_Tasks\blocktim.o
 .debug_info    0x00000000004dc579     0x4ef4 Standard_Demo_Tasks\countsem.o
 .debug_info    0x00000000004e146d     0x4e7e Standard_Demo_Tasks\death.o
 .debug_info    0x00000000004e62eb     0x50da Standard_Demo_Tasks\dynamic.o
 .debug_info    0x00000000004eb3c5     0x4fba Standard_Demo_Tasks\flop.o
 .debug_info    0x00000000004f037f     0x4d79 Standard_Demo_Tasks\integer.o
 .debug_info    0x00000000004f50f8     0x4f4a Standard_Demo_Tasks\semtest.o
 .debug_info    0x00000000004fa042     0x537c code_coverage_additions.o
 .debug_info    0x00000000004ff3be     0x55cf main.o
 .debug_info    0x000000000050498d     0x4df4 main_blinky.o
 .debug_info    0x0000000000509781     0x56ac main_full.o
 .debug_info    0x000000000050ee2d       0xbd D:/ITI/lectures/5-Intro to ES- Assaf/Tools/General Tools/mingw64/bin/../lib/gcc/x86_64-w64-mingw32/6.2.0/libgcc.a(_chkstk_ms.o)
 .debug_info    0x000000000050eeea     0x1d20 D:/ITI/lectures/5-Intro to ES- Assaf/Tools/General Tools/mingw64/bin/../lib/gcc/x86_64-w64-mingw32/6.2.0/libgcc.a(_ctors.o)

.zdebug_info
 *(.zdebug_info .zdebug.gnu.linkonce.wi.*)

.debug_abbrev   0x0000000000511000     0x5a00
 *(.debug_abbrev)
 .debug_abbrev  0x0000000000511000      0x1f6 DemosModifiedForLowTickRate\recmutex.o
 .debug_abbrev  0x00000000005111f6      0x11e FreeRTOS_Source\croutine.o
 .debug_abbrev  0x0000000000511314      0x254 FreeRTOS_Source\event_groups.o
 .debug_abbrev  0x0000000000511568      0x1bb FreeRTOS_Source\list.o
 .debug_abbrev  0x0000000000511723      0x39f FreeRTOS_Source\portable\MSVC-MingW\port.o
 .debug_abbrev  0x0000000000511ac2      0x230 FreeRTOS_Source\portable\MemMang\heap_5.o
 .debug_abbrev  0x0000000000511cf2      0x2ed FreeRTOS_Source\queue.o
 .debug_abbrev  0x0000000000511fdf      0x292 FreeRTOS_Source\stream_buffer.o
 .debug_abbrev  0x0000000000512271      0x33f FreeRTOS_Source\tasks.o
 .debug_abbrev  0x00000000005125b0      0x311 FreeRTOS_Source\timers.o
 .debug_abbrev  0x00000000005128c1      0x1d0 MyTask.o
 .debug_abbrev  0x0000000000512a91      0x1da Run-time-stats-utils.o
 .debug_abbrev  0x0000000000512c6b      0x257 Standard_Demo_Tasks\AbortDelay.o
 .debug_abbrev  0x0000000000512ec2      0x1fc Standard_Demo_Tasks\BlockQ.o
 .debug_abbrev  0x00000000005130be      0x257 Standard_Demo_Tasks\EventGroupsDemo.o
 .debug_abbrev  0x0000000000513315      0x232 Standard_Demo_Tasks\GenQTest.o
 .debug_abbrev  0x0000000000513547      0x25c Standard_Demo_Tasks\IntSemTest.o
 .debug_abbrev  0x00000000005137a3      0x24e Standard_Demo_Tasks\MessageBufferAMP.o
 .debug_abbrev  0x00000000005139f1      0x22c Standard_Demo_Tasks\MessageBufferDemo.o
 .debug_abbrev  0x0000000000513c1d      0x1cf Standard_Demo_Tasks\PollQ.o
 .debug_abbrev  0x0000000000513dec      0x225 Standard_Demo_Tasks\QPeek.o
 .debug_abbrev  0x0000000000514011      0x1e9 Standard_Demo_Tasks\QueueOverwrite.o
 .debug_abbrev  0x00000000005141fa      0x27e Standard_Demo_Tasks\QueueSet.o
 .debug_abbrev  0x0000000000514478      0x1da Standard_Demo_Tasks\QueueSetPolling.o
 .debug_abbrev  0x0000000000514652      0x287 Standard_Demo_Tasks\StaticAllocation.o
 .debug_abbrev  0x00000000005148d9      0x246 Standard_Demo_Tasks\StreamBufferDemo.o
 .debug_abbrev  0x0000000000514b1f      0x1da Standard_Demo_Tasks\StreamBufferInterrupt.o
 .debug_abbrev  0x0000000000514cf9      0x248 Standard_Demo_Tasks\TaskNotify.o
 .debug_abbrev  0x0000000000514f41      0x24d Standard_Demo_Tasks\TimerDemo.o
 .debug_abbrev  0x000000000051518e      0x214 Standard_Demo_Tasks\blocktim.o
 .debug_abbrev  0x00000000005153a2      0x1ed Standard_Demo_Tasks\countsem.o
 .debug_abbrev  0x000000000051558f      0x1e0 Standard_Demo_Tasks\death.o
 .debug_abbrev  0x000000000051576f      0x225 Standard_Demo_Tasks\dynamic.o
 .debug_abbrev  0x0000000000515994      0x23b Standard_Demo_Tasks\flop.o
 .debug_abbrev  0x0000000000515bcf      0x1c0 Standard_Demo_Tasks\integer.o
 .debug_abbrev  0x0000000000515d8f      0x1de Standard_Demo_Tasks\semtest.o
 .debug_abbrev  0x0000000000515f6d      0x214 code_coverage_additions.o
 .debug_abbrev  0x0000000000516181      0x261 main.o
 .debug_abbrev  0x00000000005163e2      0x1de main_blinky.o
 .debug_abbrev  0x00000000005165c0      0x25f main_full.o
 .debug_abbrev  0x000000000051681f       0x14 D:/ITI/lectures/5-Intro to ES- Assaf/Tools/General Tools/mingw64/bin/../lib/gcc/x86_64-w64-mingw32/6.2.0/libgcc.a(_chkstk_ms.o)
 .debug_abbrev  0x0000000000516833      0x11b D:/ITI/lectures/5-Intro to ES- Assaf/Tools/General Tools/mingw64/bin/../lib/gcc/x86_64-w64-mingw32/6.2.0/libgcc.a(_ctors.o)

.zdebug_abbrev
 *(.zdebug_abbrev)

.debug_line     0x0000000000517000    0x2da00
 *(.debug_line)
 .debug_line    0x0000000000517000     0x1127 DemosModifiedForLowTickRate\recmutex.o
 .debug_line    0x0000000000518127     0x101d FreeRTOS_Source\croutine.o
 .debug_line    0x0000000000519144     0x11bb FreeRTOS_Source\event_groups.o
 .debug_line    0x000000000051a2ff     0x1045 FreeRTOS_Source\list.o
 .debug_line    0x000000000051b344     0x122c FreeRTOS_Source\portable\MSVC-MingW\port.o
 .debug_line    0x000000000051c570     0x112e FreeRTOS_Source\portable\MemMang\heap_5.o
 .debug_line    0x000000000051d69e     0x16c6 FreeRTOS_Source\queue.o
 .debug_line    0x000000000051ed64     0x1335 FreeRTOS_Source\stream_buffer.o
 .debug_line    0x0000000000520099     0x198b FreeRTOS_Source\tasks.o
 .debug_line    0x0000000000521a24     0x129a FreeRTOS_Source\timers.o
 .debug_line    0x0000000000522cbe     0x113b MyTask.o
 .debug_line    0x0000000000523df9     0x1023 Run-time-stats-utils.o
 .debug_line    0x0000000000524e1c     0x11e5 Standard_Demo_Tasks\AbortDelay.o
 .debug_line    0x0000000000526001     0x10e3 Standard_Demo_Tasks\BlockQ.o
 .debug_line    0x00000000005270e4     0x12aa Standard_Demo_Tasks\EventGroupsDemo.o
 .debug_line    0x000000000052838e     0x1260 Standard_Demo_Tasks\GenQTest.o
 .debug_line    0x00000000005295ee     0x119e Standard_Demo_Tasks\IntSemTest.o
 .debug_line    0x000000000052a78c     0x11aa Standard_Demo_Tasks\MessageBufferAMP.o
 .debug_line    0x000000000052b936     0x147a Standard_Demo_Tasks\MessageBufferDemo.o
 .debug_line    0x000000000052cdb0     0x10be Standard_Demo_Tasks\PollQ.o
 .debug_line    0x000000000052de6e     0x110a Standard_Demo_Tasks\QPeek.o
 .debug_line    0x000000000052ef78     0x10f2 Standard_Demo_Tasks\QueueOverwrite.o
 .debug_line    0x000000000053006a     0x12b9 Standard_Demo_Tasks\QueueSet.o
 .debug_line    0x0000000000531323     0x10ac Standard_Demo_Tasks\QueueSetPolling.o
 .debug_line    0x00000000005323cf     0x134b Standard_Demo_Tasks\StaticAllocation.o
 .debug_line    0x000000000053371a     0x150b Standard_Demo_Tasks\StreamBufferDemo.o
 .debug_line    0x0000000000534c25     0x1158 Standard_Demo_Tasks\StreamBufferInterrupt.o
 .debug_line    0x0000000000535d7d     0x1360 Standard_Demo_Tasks\TaskNotify.o
 .debug_line    0x00000000005370dd     0x154f Standard_Demo_Tasks\TimerDemo.o
 .debug_line    0x000000000053862c     0x11a5 Standard_Demo_Tasks\blocktim.o
 .debug_line    0x00000000005397d1     0x1120 Standard_Demo_Tasks\countsem.o
 .debug_line    0x000000000053a8f1     0x10a8 Standard_Demo_Tasks\death.o
 .debug_line    0x000000000053b999     0x1143 Standard_Demo_Tasks\dynamic.o
 .debug_line    0x000000000053cadc     0x1145 Standard_Demo_Tasks\flop.o
 .debug_line    0x000000000053dc21     0x10a4 Standard_Demo_Tasks\integer.o
 .debug_line    0x000000000053ecc5     0x10f1 Standard_Demo_Tasks\semtest.o
 .debug_line    0x000000000053fdb6     0x11ac code_coverage_additions.o
 .debug_line    0x0000000000540f62     0x11c8 main.o
 .debug_line    0x000000000054212a     0x1100 main_blinky.o
 .debug_line    0x000000000054322a     0x14d9 main_full.o
 .debug_line    0x0000000000544703       0x7b D:/ITI/lectures/5-Intro to ES- Assaf/Tools/General Tools/mingw64/bin/../lib/gcc/x86_64-w64-mingw32/6.2.0/libgcc.a(_chkstk_ms.o)
 .debug_line    0x000000000054477e      0x1a7 D:/ITI/lectures/5-Intro to ES- Assaf/Tools/General Tools/mingw64/bin/../lib/gcc/x86_64-w64-mingw32/6.2.0/libgcc.a(_ctors.o)

.zdebug_line
 *(.zdebug_line)

.debug_frame    0x0000000000545000     0x4800
 *(.debug_frame)
 .debug_frame   0x0000000000545000       0xc8 DemosModifiedForLowTickRate\recmutex.o
 .debug_frame   0x00000000005450c8      0x270 FreeRTOS_Source\event_groups.o
 .debug_frame   0x0000000000545338       0xe0 FreeRTOS_Source\list.o
 .debug_frame   0x0000000000545418      0x230 FreeRTOS_Source\portable\MSVC-MingW\port.o
 .debug_frame   0x0000000000545648      0x130 FreeRTOS_Source\portable\MemMang\heap_5.o
 .debug_frame   0x0000000000545778      0x768 FreeRTOS_Source\queue.o
 .debug_frame   0x0000000000545ee0      0x400 FreeRTOS_Source\stream_buffer.o
 .debug_frame   0x00000000005462e0      0xb50 FreeRTOS_Source\tasks.o
 .debug_frame   0x0000000000546e30      0x448 FreeRTOS_Source\timers.o
 .debug_frame   0x0000000000547278       0x78 MyTask.o
 .debug_frame   0x00000000005472f0       0x68 Run-time-stats-utils.o
 .debug_frame   0x0000000000547358      0x238 Standard_Demo_Tasks\AbortDelay.o
 .debug_frame   0x0000000000547590       0xa8 Standard_Demo_Tasks\BlockQ.o
 .debug_frame   0x0000000000547638      0x190 Standard_Demo_Tasks\EventGroupsDemo.o
 .debug_frame   0x00000000005477c8      0x170 Standard_Demo_Tasks\GenQTest.o
 .debug_frame   0x0000000000547938      0x140 Standard_Demo_Tasks\IntSemTest.o
 .debug_frame   0x0000000000547a78       0xf8 Standard_Demo_Tasks\MessageBufferAMP.o
 .debug_frame   0x0000000000547b70      0x150 Standard_Demo_Tasks\MessageBufferDemo.o
 .debug_frame   0x0000000000547cc0       0xa8 Standard_Demo_Tasks\PollQ.o
 .debug_frame   0x0000000000547d68       0xe8 Standard_Demo_Tasks\QPeek.o
 .debug_frame   0x0000000000547e50       0xb0 Standard_Demo_Tasks\QueueOverwrite.o
 .debug_frame   0x0000000000547f00      0x288 Standard_Demo_Tasks\QueueSet.o
 .debug_frame   0x0000000000548188       0xb0 Standard_Demo_Tasks\QueueSetPolling.o
 .debug_frame   0x0000000000548238      0x308 Standard_Demo_Tasks\StaticAllocation.o
 .debug_frame   0x0000000000548540      0x1c0 Standard_Demo_Tasks\StreamBufferDemo.o
 .debug_frame   0x0000000000548700       0xb0 Standard_Demo_Tasks\StreamBufferInterrupt.o
 .debug_frame   0x00000000005487b0      0x150 Standard_Demo_Tasks\TaskNotify.o
 .debug_frame   0x0000000000548900      0x268 Standard_Demo_Tasks\TimerDemo.o
 .debug_frame   0x0000000000548b68       0xd0 Standard_Demo_Tasks\blocktim.o
 .debug_frame   0x0000000000548c38       0xd8 Standard_Demo_Tasks\countsem.o
 .debug_frame   0x0000000000548d10       0xa8 Standard_Demo_Tasks\death.o
 .debug_frame   0x0000000000548db8      0x108 Standard_Demo_Tasks\dynamic.o
 .debug_frame   0x0000000000548ec0       0xe8 Standard_Demo_Tasks\flop.o
 .debug_frame   0x0000000000548fa8       0x88 Standard_Demo_Tasks\integer.o
 .debug_frame   0x0000000000549030       0x88 Standard_Demo_Tasks\semtest.o
 .debug_frame   0x00000000005490b8      0x190 code_coverage_additions.o
 .debug_frame   0x0000000000549248      0x210 main.o
 .debug_frame   0x0000000000549458       0xa0 main_blinky.o
 .debug_frame   0x00000000005494f8      0x270 main_full.o
 .debug_frame   0x0000000000549768       0x48 D:/ITI/lectures/5-Intro to ES- Assaf/Tools/General Tools/mingw64/bin/../lib/gcc/x86_64-w64-mingw32/6.2.0/libgcc.a(_chkstk_ms.o)

.zdebug_frame
 *(.zdebug_frame)

.debug_str      0x000000000054a000     0x1200
 *(.debug_str)
 .debug_str     0x000000000054a000       0x16 DemosModifiedForLowTickRate\recmutex.o
 .debug_str     0x000000000054a016        0x9 FreeRTOS_Source\croutine.o
 .debug_str     0x000000000054a01f      0x113 FreeRTOS_Source\event_groups.o
 .debug_str     0x000000000054a132       0x34 FreeRTOS_Source\list.o
 .debug_str     0x000000000054a166      0x1f2 FreeRTOS_Source\portable\MSVC-MingW\port.o
 .debug_str     0x000000000054a358       0x60 FreeRTOS_Source\portable\MemMang\heap_5.o
 .debug_str     0x000000000054a3b8      0x210 FreeRTOS_Source\queue.o
 .debug_str     0x000000000054a5c8      0x171 FreeRTOS_Source\stream_buffer.o
 .debug_str     0x000000000054a739      0x238 FreeRTOS_Source\tasks.o
 .debug_str     0x000000000054a971      0x165 FreeRTOS_Source\timers.o
 .debug_str     0x000000000054aad6        0x9 MyTask.o
 .debug_str     0x000000000054aadf       0x44 Run-time-stats-utils.o
 .debug_str     0x000000000054ab23       0x4f Standard_Demo_Tasks\AbortDelay.o
 .debug_str     0x000000000054ab72       0x46 Standard_Demo_Tasks\BlockQ.o
 .debug_str     0x000000000054abb8       0x3d Standard_Demo_Tasks\EventGroupsDemo.o
 .debug_str     0x000000000054abf5       0x29 Standard_Demo_Tasks\GenQTest.o
 .debug_str     0x000000000054ac1e       0x16 Standard_Demo_Tasks\IntSemTest.o
 .debug_str     0x000000000054ac34       0x38 Standard_Demo_Tasks\MessageBufferAMP.o
 .debug_str     0x000000000054ac6c       0x83 Standard_Demo_Tasks\MessageBufferDemo.o
 .debug_str     0x000000000054acef       0x16 Standard_Demo_Tasks\PollQ.o
 .debug_str     0x000000000054ad05       0x25 Standard_Demo_Tasks\QPeek.o
 .debug_str     0x000000000054ad2a       0x17 Standard_Demo_Tasks\QueueOverwrite.o
 .debug_str     0x000000000054ad41       0xb4 Standard_Demo_Tasks\QueueSet.o
 .debug_str     0x000000000054adf5        0x9 Standard_Demo_Tasks\QueueSetPolling.o
 .debug_str     0x000000000054adfe       0x7e Standard_Demo_Tasks\StaticAllocation.o
 .debug_str     0x000000000054ae7c       0xa6 Standard_Demo_Tasks\StreamBufferDemo.o
 .debug_str     0x000000000054af22        0x9 Standard_Demo_Tasks\StreamBufferInterrupt.o
 .debug_str     0x000000000054af2b       0x19 Standard_Demo_Tasks\TaskNotify.o
 .debug_str     0x000000000054af44       0x20 Standard_Demo_Tasks\TimerDemo.o
 .debug_str     0x000000000054af64       0x35 Standard_Demo_Tasks\blocktim.o
 .debug_str     0x000000000054af99       0x23 Standard_Demo_Tasks\countsem.o
 .debug_str     0x000000000054afbc       0x21 Standard_Demo_Tasks\death.o
 .debug_str     0x000000000054afdd       0x21 Standard_Demo_Tasks\dynamic.o
 .debug_str     0x000000000054affe       0x53 Standard_Demo_Tasks\flop.o
 .debug_str     0x000000000054b051        0x9 Standard_Demo_Tasks\integer.o
 .debug_str     0x000000000054b05a       0x26 Standard_Demo_Tasks\semtest.o
 .debug_str     0x000000000054b080       0x2b code_coverage_additions.o
 .debug_str     0x000000000054b0ab       0x14 main.o
 .debug_str     0x000000000054b0bf       0x3d main_blinky.o
 .debug_str     0x000000000054b0fc       0x7b main_full.o
 .debug_str     0x000000000054b177        0x0 D:/ITI/lectures/5-Intro to ES- Assaf/Tools/General Tools/mingw64/bin/../lib/gcc/x86_64-w64-mingw32/6.2.0/libgcc.a(_ctors.o)

.zdebug_str
 *(.zdebug_str)

.debug_loc
 *(.debug_loc)

.zdebug_loc
 *(.zdebug_loc)

.debug_macinfo
 *(.debug_macinfo)

.zdebug_macinfo
 *(.zdebug_macinfo)

.debug_weaknames
 *(.debug_weaknames)

.zdebug_weaknames
 *(.zdebug_weaknames)

.debug_funcnames
 *(.debug_funcnames)

.zdebug_funcnames
 *(.zdebug_funcnames)

.debug_typenames
 *(.debug_typenames)

.zdebug_typenames
 *(.zdebug_typenames)

.debug_varnames
 *(.debug_varnames)

.zdebug_varnames
 *(.zdebug_varnames)

.debug_macro    0x000000000054c000  0x2c9e400
 *(.debug_macro)
 .debug_macro   0x000000000054c000   0x11df78 DemosModifiedForLowTickRate\recmutex.o
 .debug_macro   0x0000000000669f78   0x11d25a FreeRTOS_Source\croutine.o
 .debug_macro   0x00000000007871d2   0x11d205 FreeRTOS_Source\event_groups.o
 .debug_macro   0x00000000008a43d7   0x11c1f0 FreeRTOS_Source\list.o
 .debug_macro   0x00000000009c05c7   0x11d72b FreeRTOS_Source\portable\MSVC-MingW\port.o
 .debug_macro   0x0000000000addcf2   0x11c96a FreeRTOS_Source\portable\MemMang\heap_5.o
 .debug_macro   0x0000000000bfa65c   0x11d34d FreeRTOS_Source\queue.o
 .debug_macro   0x0000000000d179a9   0x11d461 FreeRTOS_Source\stream_buffer.o
 .debug_macro   0x0000000000e34e0a   0x11d891 FreeRTOS_Source\tasks.o
 .debug_macro   0x0000000000f5269b   0x11d9ed FreeRTOS_Source\timers.o
 .debug_macro   0x0000000001070088   0x11effd MyTask.o
 .debug_macro   0x000000000118f085   0x11bda8 Run-time-stats-utils.o
 .debug_macro   0x00000000012aae2d   0x11e986 Standard_Demo_Tasks\AbortDelay.o
 .debug_macro   0x00000000013c97b3   0x11d133 Standard_Demo_Tasks\BlockQ.o
 .debug_macro   0x00000000014e68e6   0x11d87f Standard_Demo_Tasks\EventGroupsDemo.o
 .debug_macro   0x0000000001604165   0x11dc50 Standard_Demo_Tasks\GenQTest.o
 .debug_macro   0x0000000001721db5   0x11db63 Standard_Demo_Tasks\IntSemTest.o
 .debug_macro   0x000000000183f918   0x11e192 Standard_Demo_Tasks\MessageBufferAMP.o
 .debug_macro   0x000000000195daaa   0x11e25c Standard_Demo_Tasks\MessageBufferDemo.o
 .debug_macro   0x0000000001a7bd06   0x11d247 Standard_Demo_Tasks\PollQ.o
 .debug_macro   0x0000000001b98f4d   0x11dbb9 Standard_Demo_Tasks\QPeek.o
 .debug_macro   0x0000000001cb6b06   0x11d4a8 Standard_Demo_Tasks\QueueOverwrite.o
 .debug_macro   0x0000000001dd3fae   0x11d30f Standard_Demo_Tasks\QueueSet.o
 .debug_macro   0x0000000001ef12bd   0x11d14b Standard_Demo_Tasks\QueueSetPolling.o
 .debug_macro   0x000000000200e408   0x11e7be Standard_Demo_Tasks\StaticAllocation.o
 .debug_macro   0x000000000212cbc6   0x11d93a Standard_Demo_Tasks\StreamBufferDemo.o
 .debug_macro   0x000000000224a500   0x11d7e4 Standard_Demo_Tasks\StreamBufferInterrupt.o
 .debug_macro   0x0000000002367ce4   0x11d588 Standard_Demo_Tasks\TaskNotify.o
 .debug_macro   0x000000000248526c   0x11d534 Standard_Demo_Tasks\TimerDemo.o
 .debug_macro   0x00000000025a27a0   0x11d61f Standard_Demo_Tasks\blocktim.o
 .debug_macro   0x00000000026bfdbf   0x11dee4 Standard_Demo_Tasks\countsem.o
 .debug_macro   0x00000000027ddca3   0x11c902 Standard_Demo_Tasks\death.o
 .debug_macro   0x00000000028fa5a5   0x11dbc4 Standard_Demo_Tasks\dynamic.o
 .debug_macro   0x0000000002a18169   0x11d66b Standard_Demo_Tasks\flop.o
 .debug_macro   0x0000000002b357d4   0x11c9e1 Standard_Demo_Tasks\integer.o
 .debug_macro   0x0000000002c521b5   0x11db92 Standard_Demo_Tasks\semtest.o
 .debug_macro   0x0000000002d6fd47   0x11f18e code_coverage_additions.o
 .debug_macro   0x0000000002e8eed5   0x11d2de main.o
 .debug_macro   0x0000000002fac1b3   0x11f121 main_blinky.o
 .debug_macro   0x00000000030cb2d4   0x11f07f main_full.o

.zdebug_macro
 *(.zdebug_macro)

.debug_ranges   0x00000000031eb000      0x200
 *(.debug_ranges)
 .debug_ranges  0x00000000031eb000       0x30 main.o

.zdebug_ranges
 *(.zdebug_ranges)

.debug_types
 *(.debug_types .gnu.linkonce.wt.*)

.zdebug_types
 *(.zdebug_types .zdebug.gnu.linkonce.wt.*)
OUTPUT(RTOSDemo.exe pei-x86-64)
